
./build/hello-hpc:     file format elf64-littleriscv


Disassembly of section .text:

00000000000102f0 <main>:
#include <string.h>
#include <stdio.h>


int main()
{
   102f0:	715d                	addi	sp,sp,-80
   102f2:	e486                	sd	ra,72(sp)
   102f4:	e0a2                	sd	s0,64(sp)
   102f6:	0880                	addi	s0,sp,80
    printf("Hello, world! (from newlib)\n");   
   102f8:	00000517          	auipc	a0,0x0
   102fc:	d0850513          	addi	a0,a0,-760 # 10000 <__fini_array_end>
   10300:	71a000ef          	jal	10a1a <puts>
    char name[50];
    // gets(name);
    scanf("%s", name);
   10304:	fb840793          	addi	a5,s0,-72
   10308:	85be                	mv	a1,a5
   1030a:	00000517          	auipc	a0,0x0
   1030e:	d1650513          	addi	a0,a0,-746 # 10020 <__fini_array_end+0x20>
   10312:	734000ef          	jal	10a46 <iscanf>
    // printf("Hello %s!\n", name);

    return 0;
   10316:	4781                	li	a5,0
}
   10318:	853e                	mv	a0,a5
   1031a:	60a6                	ld	ra,72(sp)
   1031c:	6406                	ld	s0,64(sp)
   1031e:	6161                	addi	sp,sp,80
   10320:	8082                	ret

0000000000010322 <_enter>:
  
_enter:
  # Initialize global pointer
.option push
.option norelax
1:auipc gp, %pcrel_hi(__global_pointer$)
   10322:	00007197          	auipc	gp,0x7
  addi  gp, gp, %pcrel_lo(1b)
   10326:	1a618193          	addi	gp,gp,422 # 174c8 <__global_pointer$>
.option pop
  la    sp, _sp
   1032a:	fc818113          	addi	sp,gp,-56 # 17490 <_heap>

  # Initialize .data
  la      a0, metal_segment_data_target_start
   1032e:	00006517          	auipc	a0,0x6
   10332:	f3a50513          	addi	a0,a0,-198 # 16268 <__sglue>
  la      a1, metal_segment_data_target_end
   10336:	82018593          	addi	a1,gp,-2016 # 16ce8 <__stdio_exit_handler>
  la      a2, metal_segment_data_source_start
   1033a:	00006617          	auipc	a2,0x6
   1033e:	f2e60613          	addi	a2,a2,-210 # 16268 <__sglue>

0000000000010342 <copy_data>:

copy_data:
    beq a0, a1, clear_bss /* If we have reached the end of .data, move to .bss */
   10342:	00b50963          	beq	a0,a1,10354 <clear_bss>
    lw t0, 0(a2)          /* Load word from source address */
   10346:	00062283          	lw	t0,0(a2)
    sw t0, 0(a0)          /* Store word to destination address */
   1034a:	00552023          	sw	t0,0(a0)
    addi a0, a0, 4        /* Increment destination address */
   1034e:	0511                	addi	a0,a0,4
    addi a2, a2, 4        /* Increment source address */
   10350:	0611                	addi	a2,a2,4
    j copy_data           /* Repeat until done */
   10352:	bfc5                	j	10342 <copy_data>

0000000000010354 <clear_bss>:

clear_bss:
  # Clear the bss segment
  la      a0, metal_segment_bss_target_start    # Load start of bss
   10354:	82018513          	addi	a0,gp,-2016 # 16ce8 <__stdio_exit_handler>
  la      a2, metal_segment_bss_target_end      # Load end of bss
   10358:	bc018613          	addi	a2,gp,-1088 # 17088 <metal_segment_bss_target_end>
  sub     a2, a2, a0                            # Get size of bss section
   1035c:	8e09                	sub	a2,a2,a0
  li      a1, 0                                 # Load fill value
   1035e:	4581                	li	a1,0
  call    memset
   10360:	0d2010ef          	jal	11432 <memset>

  # Exit handling
  la      a0, __libc_fini_array   # Register global termination functions
   10364:	00001517          	auipc	a0,0x1
   10368:	07050513          	addi	a0,a0,112 # 113d4 <__libc_fini_array>
  call    atexit                  #  to be called upon exit
   1036c:	01e000ef          	jal	1038a <atexit>
  call    __libc_init_array       # Run global initialization functions
   10370:	7bd000ef          	jal	1132c <__libc_init_array>

  # Call UART initialization function
  lw      a0, 0(sp)                  # a0 = argc
   10374:	4502                	lw	a0,0(sp)
  addi    a1, sp, __SIZEOF_POINTER__ # a1 = argv
   10376:	002c                	addi	a1,sp,8
  li      a2, 0                      # a2 = envp = NULL
   10378:	4601                	li	a2,0
  call    uart8250_init
   1037a:	5bb050ef          	jal	16134 <uart8250_init>

  # Call main
  lw      a0, 0(sp)                  # a0 = argc
   1037e:	4502                	lw	a0,0(sp)
  addi    a1, sp, __SIZEOF_POINTER__ # a1 = argv
   10380:	002c                	addi	a1,sp,8
  li      a2, 0                      # a2 = envp = NULL
   10382:	4601                	li	a2,0
  call    main
   10384:	f6dff0ef          	jal	102f0 <main>
  tail    exit
   10388:	a025                	j	103b0 <exit>

000000000001038a <atexit>:
   1038a:	1101                	addi	sp,sp,-32
   1038c:	ec06                	sd	ra,24(sp)
   1038e:	e822                	sd	s0,16(sp)
   10390:	1000                	addi	s0,sp,32
   10392:	fea43423          	sd	a0,-24(s0)
   10396:	4681                	li	a3,0
   10398:	4601                	li	a2,0
   1039a:	fe843583          	ld	a1,-24(s0)
   1039e:	4501                	li	a0,0
   103a0:	13c010ef          	jal	114dc <__register_exitproc>
   103a4:	87aa                	mv	a5,a0
   103a6:	853e                	mv	a0,a5
   103a8:	60e2                	ld	ra,24(sp)
   103aa:	6442                	ld	s0,16(sp)
   103ac:	6105                	addi	sp,sp,32
   103ae:	8082                	ret

00000000000103b0 <exit>:
   103b0:	1101                	addi	sp,sp,-32
   103b2:	ec06                	sd	ra,24(sp)
 * Exit, flushing stdio buffers if necessary.
 */

void
exit (int code)
{
   103b4:	e822                	sd	s0,16(sp)
   103b6:	1000                	addi	s0,sp,32
   103b8:	87aa                	mv	a5,a0
   103ba:	fef42623          	sw	a5,-20(s0)
#ifdef _LITE_EXIT
  /* Refer to comments in __atexit.c for more details of lite exit.  */
  void __call_exitprocs (int, void *) __attribute__((weak));
  if (__call_exitprocs)
#endif
    __call_exitprocs (code, NULL);
   103be:	fec42783          	lw	a5,-20(s0)
   103c2:	4581                	li	a1,0
   103c4:	853e                	mv	a0,a5
   103c6:	216010ef          	jal	115dc <__call_exitprocs>

  if (__stdio_exit_handler != NULL)
   103ca:	82018793          	addi	a5,gp,-2016 # 16ce8 <__stdio_exit_handler>
   103ce:	639c                	ld	a5,0(a5)
   103d0:	c789                	beqz	a5,103da <exit+0x2a>
    (*__stdio_exit_handler) ();
   103d2:	82018793          	addi	a5,gp,-2016 # 16ce8 <__stdio_exit_handler>
   103d6:	639c                	ld	a5,0(a5)
   103d8:	9782                	jalr	a5

  _exit (code);
   103da:	fec42783          	lw	a5,-20(s0)
   103de:	853e                	mv	a0,a5
   103e0:	1a5050ef          	jal	15d84 <_exit>

00000000000103e4 <std>:
static void
#endif
std (FILE *ptr,
            int flags,
            int file)
{
   103e4:	1101                	addi	sp,sp,-32
   103e6:	ec06                	sd	ra,24(sp)
   103e8:	e822                	sd	s0,16(sp)
   103ea:	1000                	addi	s0,sp,32
   103ec:	fea43423          	sd	a0,-24(s0)
   103f0:	87ae                	mv	a5,a1
   103f2:	8732                	mv	a4,a2
   103f4:	fef42223          	sw	a5,-28(s0)
   103f8:	87ba                	mv	a5,a4
   103fa:	fef42023          	sw	a5,-32(s0)
  ptr->_p = 0;
   103fe:	fe843783          	ld	a5,-24(s0)
   10402:	0007b023          	sd	zero,0(a5)
  ptr->_r = 0;
   10406:	fe843783          	ld	a5,-24(s0)
   1040a:	0007a423          	sw	zero,8(a5)
  ptr->_w = 0;
   1040e:	fe843783          	ld	a5,-24(s0)
   10412:	0007a623          	sw	zero,12(a5)
  ptr->_flags = flags;
   10416:	fe442783          	lw	a5,-28(s0)
   1041a:	0107971b          	slliw	a4,a5,0x10
   1041e:	4107571b          	sraiw	a4,a4,0x10
   10422:	fe843783          	ld	a5,-24(s0)
   10426:	00e79823          	sh	a4,16(a5)
  ptr->_flags2 = 0;
   1042a:	fe843783          	ld	a5,-24(s0)
   1042e:	0a07a423          	sw	zero,168(a5)
  ptr->_file = file;
   10432:	fe042783          	lw	a5,-32(s0)
   10436:	0107971b          	slliw	a4,a5,0x10
   1043a:	4107571b          	sraiw	a4,a4,0x10
   1043e:	fe843783          	ld	a5,-24(s0)
   10442:	00e79923          	sh	a4,18(a5)
  ptr->_bf._base = 0;
   10446:	fe843783          	ld	a5,-24(s0)
   1044a:	0007bc23          	sd	zero,24(a5)
  ptr->_bf._size = 0;
   1044e:	fe843783          	ld	a5,-24(s0)
   10452:	0207a023          	sw	zero,32(a5)
  ptr->_lbfsize = 0;
   10456:	fe843783          	ld	a5,-24(s0)
   1045a:	0207a423          	sw	zero,40(a5)
  memset (&ptr->_mbstate, 0, sizeof (_mbstate_t));
   1045e:	fe843783          	ld	a5,-24(s0)
   10462:	0a078793          	addi	a5,a5,160
   10466:	4621                	li	a2,8
   10468:	4581                	li	a1,0
   1046a:	853e                	mv	a0,a5
   1046c:	7c7000ef          	jal	11432 <memset>
  ptr->_cookie = ptr;
   10470:	fe843783          	ld	a5,-24(s0)
   10474:	fe843703          	ld	a4,-24(s0)
   10478:	ff98                	sd	a4,56(a5)
  ptr->_read = __sread;
   1047a:	fe843783          	ld	a5,-24(s0)
   1047e:	00000717          	auipc	a4,0x0
   10482:	69870713          	addi	a4,a4,1688 # 10b16 <__sread>
   10486:	e3b8                	sd	a4,64(a5)
#ifndef __LARGE64_FILES
  ptr->_write = __swrite;
   10488:	fe843783          	ld	a5,-24(s0)
   1048c:	00000717          	auipc	a4,0x0
   10490:	71c70713          	addi	a4,a4,1820 # 10ba8 <__swrite>
   10494:	e7b8                	sd	a4,72(a5)
#else /* __LARGE64_FILES */
  ptr->_write = __swrite64;
  ptr->_seek64 = __sseek64;
  ptr->_flags |= __SL64;
#endif /* __LARGE64_FILES */
  ptr->_seek = __sseek;
   10496:	fe843783          	ld	a5,-24(s0)
   1049a:	00000717          	auipc	a4,0x0
   1049e:	79670713          	addi	a4,a4,1942 # 10c30 <__sseek>
   104a2:	ebb8                	sd	a4,80(a5)
#ifdef _STDIO_CLOSE_PER_REENT_STD_STREAMS
  ptr->_close = __sclose;
   104a4:	fe843783          	ld	a5,-24(s0)
   104a8:	00001717          	auipc	a4,0x1
   104ac:	80c70713          	addi	a4,a4,-2036 # 10cb4 <__sclose>
   104b0:	efb8                	sd	a4,88(a5)
#endif
#ifdef __SCLE
  if (__stextmode (ptr->_file))
    ptr->_flags |= __SCLE;
#endif
}
   104b2:	0001                	nop
   104b4:	60e2                	ld	ra,24(sp)
   104b6:	6442                	ld	s0,16(sp)
   104b8:	6105                	addi	sp,sp,32
   104ba:	8082                	ret

00000000000104bc <stdin_init>:

static inline void
stdin_init(FILE *ptr)
{
   104bc:	1101                	addi	sp,sp,-32
   104be:	ec06                	sd	ra,24(sp)
   104c0:	e822                	sd	s0,16(sp)
   104c2:	1000                	addi	s0,sp,32
   104c4:	fea43423          	sd	a0,-24(s0)
  std (ptr,  __SRD, 0);
   104c8:	4601                	li	a2,0
   104ca:	4591                	li	a1,4
   104cc:	fe843503          	ld	a0,-24(s0)
   104d0:	f15ff0ef          	jal	103e4 <std>
}
   104d4:	0001                	nop
   104d6:	60e2                	ld	ra,24(sp)
   104d8:	6442                	ld	s0,16(sp)
   104da:	6105                	addi	sp,sp,32
   104dc:	8082                	ret

00000000000104de <stdout_init>:

static inline void
stdout_init(FILE *ptr)
{
   104de:	1101                	addi	sp,sp,-32
   104e0:	ec06                	sd	ra,24(sp)
   104e2:	e822                	sd	s0,16(sp)
   104e4:	1000                	addi	s0,sp,32
   104e6:	fea43423          	sd	a0,-24(s0)
     requires both stdin and stdout to be line-buffered, but tradition
     leaves stdin alone on systems without fcntl.  */
#ifdef HAVE_FCNTL
  std (ptr, __SWR, 1);
#else
  std (ptr, __SWR | __SLBF, 1);
   104ea:	4605                	li	a2,1
   104ec:	45a5                	li	a1,9
   104ee:	fe843503          	ld	a0,-24(s0)
   104f2:	ef3ff0ef          	jal	103e4 <std>
#endif
}
   104f6:	0001                	nop
   104f8:	60e2                	ld	ra,24(sp)
   104fa:	6442                	ld	s0,16(sp)
   104fc:	6105                	addi	sp,sp,32
   104fe:	8082                	ret

0000000000010500 <stderr_init>:

static inline void
stderr_init(FILE *ptr)
{
   10500:	1101                	addi	sp,sp,-32
   10502:	ec06                	sd	ra,24(sp)
   10504:	e822                	sd	s0,16(sp)
   10506:	1000                	addi	s0,sp,32
   10508:	fea43423          	sd	a0,-24(s0)
  /* POSIX requires stderr to be opened for reading and writing, even
     when the underlying fd 2 is write-only.  */
  std (ptr, __SRW | __SNBF, 2);
   1050c:	4609                	li	a2,2
   1050e:	45c9                	li	a1,18
   10510:	fe843503          	ld	a0,-24(s0)
   10514:	ed1ff0ef          	jal	103e4 <std>
}
   10518:	0001                	nop
   1051a:	60e2                	ld	ra,24(sp)
   1051c:	6442                	ld	s0,16(sp)
   1051e:	6105                	addi	sp,sp,32
   10520:	8082                	ret

0000000000010522 <sfmoreglue>:
  FILE file;
};

static struct _glue *
sfmoreglue (struct _reent *d, int n)
{
   10522:	7179                	addi	sp,sp,-48
   10524:	f406                	sd	ra,40(sp)
   10526:	f022                	sd	s0,32(sp)
   10528:	1800                	addi	s0,sp,48
   1052a:	fca43c23          	sd	a0,-40(s0)
   1052e:	87ae                	mv	a5,a1
   10530:	fcf42a23          	sw	a5,-44(s0)
  struct glue_with_file *g;

  g = (struct glue_with_file *)
    _malloc_r (d, sizeof (*g) + (n - 1) * sizeof (FILE));
   10534:	fd442783          	lw	a5,-44(s0)
   10538:	37fd                	addiw	a5,a5,-1
   1053a:	2781                	sext.w	a5,a5
   1053c:	873e                	mv	a4,a5
   1053e:	0b000793          	li	a5,176
   10542:	02f707b3          	mul	a5,a4,a5
   10546:	0c878793          	addi	a5,a5,200
   1054a:	85be                	mv	a1,a5
   1054c:	fd843503          	ld	a0,-40(s0)
   10550:	2fb010ef          	jal	1204a <_malloc_r>
   10554:	fea43423          	sd	a0,-24(s0)
  if (g == NULL)
   10558:	fe843783          	ld	a5,-24(s0)
   1055c:	e399                	bnez	a5,10562 <sfmoreglue+0x40>
    return NULL;
   1055e:	4781                	li	a5,0
   10560:	a091                	j	105a4 <sfmoreglue+0x82>
  g->glue._next = NULL;
   10562:	fe843783          	ld	a5,-24(s0)
   10566:	0007b023          	sd	zero,0(a5)
  g->glue._niobs = n;
   1056a:	fe843783          	ld	a5,-24(s0)
   1056e:	fd442703          	lw	a4,-44(s0)
   10572:	c798                	sw	a4,8(a5)
  g->glue._iobs = &g->file;
   10574:	fe843783          	ld	a5,-24(s0)
   10578:	01878713          	addi	a4,a5,24
   1057c:	fe843783          	ld	a5,-24(s0)
   10580:	eb98                	sd	a4,16(a5)
  memset (&g->file, 0, n * sizeof (FILE));
   10582:	fe843783          	ld	a5,-24(s0)
   10586:	01878693          	addi	a3,a5,24
   1058a:	fd442703          	lw	a4,-44(s0)
   1058e:	0b000793          	li	a5,176
   10592:	02f707b3          	mul	a5,a4,a5
   10596:	863e                	mv	a2,a5
   10598:	4581                	li	a1,0
   1059a:	8536                	mv	a0,a3
   1059c:	697000ef          	jal	11432 <memset>
  return &g->glue;
   105a0:	fe843783          	ld	a5,-24(s0)
}
   105a4:	853e                	mv	a0,a5
   105a6:	70a2                	ld	ra,40(sp)
   105a8:	7402                	ld	s0,32(sp)
   105aa:	6145                	addi	sp,sp,48
   105ac:	8082                	ret

00000000000105ae <stdio_exit_handler>:

static void
stdio_exit_handler (void)
{
   105ae:	1141                	addi	sp,sp,-16
   105b0:	e406                	sd	ra,8(sp)
   105b2:	e022                	sd	s0,0(sp)
   105b4:	0800                	addi	s0,sp,16
  (void) _fwalk_sglue (_GLOBAL_REENT, CLEANUP_FILE, &__sglue);
   105b6:	00006617          	auipc	a2,0x6
   105ba:	cb260613          	addi	a2,a2,-846 # 16268 <__sglue>
   105be:	00003597          	auipc	a1,0x3
   105c2:	04858593          	addi	a1,a1,72 # 13606 <_fclose_r>
   105c6:	00006517          	auipc	a0,0x6
   105ca:	cba50513          	addi	a0,a0,-838 # 16280 <_impure_data>
   105ce:	226000ef          	jal	107f4 <_fwalk_sglue>
}
   105d2:	0001                	nop
   105d4:	60a2                	ld	ra,8(sp)
   105d6:	6402                	ld	s0,0(sp)
   105d8:	0141                	addi	sp,sp,16
   105da:	8082                	ret

00000000000105dc <global_stdio_init>:

static void
global_stdio_init (void)
{
   105dc:	1141                	addi	sp,sp,-16
   105de:	e406                	sd	ra,8(sp)
   105e0:	e022                	sd	s0,0(sp)
   105e2:	0800                	addi	s0,sp,16
  if (__stdio_exit_handler == NULL) {
   105e4:	82018793          	addi	a5,gp,-2016 # 16ce8 <__stdio_exit_handler>
   105e8:	639c                	ld	a5,0(a5)
   105ea:	eb85                	bnez	a5,1061a <global_stdio_init+0x3e>
    __stdio_exit_handler = stdio_exit_handler;
   105ec:	82018793          	addi	a5,gp,-2016 # 16ce8 <__stdio_exit_handler>
   105f0:	00000717          	auipc	a4,0x0
   105f4:	fbe70713          	addi	a4,a4,-66 # 105ae <stdio_exit_handler>
   105f8:	e398                	sd	a4,0(a5)
    stdin_init (&__sf[0]);
   105fa:	00006517          	auipc	a0,0x6
   105fe:	72650513          	addi	a0,a0,1830 # 16d20 <__sf>
   10602:	ebbff0ef          	jal	104bc <stdin_init>
    stdout_init (&__sf[1]);
   10606:	00006517          	auipc	a0,0x6
   1060a:	7ca50513          	addi	a0,a0,1994 # 16dd0 <__sf+0xb0>
   1060e:	ed1ff0ef          	jal	104de <stdout_init>
    stderr_init (&__sf[2]);
   10612:	9b818513          	addi	a0,gp,-1608 # 16e80 <__sf+0x160>
   10616:	eebff0ef          	jal	10500 <stderr_init>
  }
}
   1061a:	0001                	nop
   1061c:	60a2                	ld	ra,8(sp)
   1061e:	6402                	ld	s0,0(sp)
   10620:	0141                	addi	sp,sp,16
   10622:	8082                	ret

0000000000010624 <__sfp>:
 * Find a free FILE for fopen et al.
 */

FILE *
__sfp (struct _reent *d)
{
   10624:	7139                	addi	sp,sp,-64
   10626:	fc06                	sd	ra,56(sp)
   10628:	f822                	sd	s0,48(sp)
   1062a:	0080                	addi	s0,sp,64
   1062c:	fca43423          	sd	a0,-56(s0)
  FILE *fp;
  int n;
  struct _glue *g;

  _newlib_sfp_lock_start ();
  global_stdio_init ();
   10630:	fadff0ef          	jal	105dc <global_stdio_init>

  for (g = &__sglue;; g = g->_next)
   10634:	00006797          	auipc	a5,0x6
   10638:	c3478793          	addi	a5,a5,-972 # 16268 <__sglue>
   1063c:	fcf43c23          	sd	a5,-40(s0)
    {
      for (fp = g->_iobs, n = g->_niobs; --n >= 0; fp++)
   10640:	fd843783          	ld	a5,-40(s0)
   10644:	6b9c                	ld	a5,16(a5)
   10646:	fef43423          	sd	a5,-24(s0)
   1064a:	fd843783          	ld	a5,-40(s0)
   1064e:	479c                	lw	a5,8(a5)
   10650:	fef42223          	sw	a5,-28(s0)
   10654:	a821                	j	1066c <__sfp+0x48>
	if (fp->_flags == 0)
   10656:	fe843783          	ld	a5,-24(s0)
   1065a:	01079783          	lh	a5,16(a5)
   1065e:	cfb9                	beqz	a5,106bc <__sfp+0x98>
      for (fp = g->_iobs, n = g->_niobs; --n >= 0; fp++)
   10660:	fe843783          	ld	a5,-24(s0)
   10664:	0b078793          	addi	a5,a5,176
   10668:	fef43423          	sd	a5,-24(s0)
   1066c:	fe442783          	lw	a5,-28(s0)
   10670:	37fd                	addiw	a5,a5,-1
   10672:	fef42223          	sw	a5,-28(s0)
   10676:	fe442783          	lw	a5,-28(s0)
   1067a:	2781                	sext.w	a5,a5
   1067c:	fc07dde3          	bgez	a5,10656 <__sfp+0x32>
	  goto found;
      if (g->_next == NULL &&
   10680:	fd843783          	ld	a5,-40(s0)
   10684:	639c                	ld	a5,0(a5)
   10686:	ef91                	bnez	a5,106a2 <__sfp+0x7e>
	  (g->_next = sfmoreglue (d, NDYNAMIC)) == NULL)
   10688:	4591                	li	a1,4
   1068a:	fc843503          	ld	a0,-56(s0)
   1068e:	e95ff0ef          	jal	10522 <sfmoreglue>
   10692:	872a                	mv	a4,a0
   10694:	fd843783          	ld	a5,-40(s0)
   10698:	e398                	sd	a4,0(a5)
   1069a:	fd843783          	ld	a5,-40(s0)
   1069e:	639c                	ld	a5,0(a5)
      if (g->_next == NULL &&
   106a0:	c799                	beqz	a5,106ae <__sfp+0x8a>
  for (g = &__sglue;; g = g->_next)
   106a2:	fd843783          	ld	a5,-40(s0)
   106a6:	639c                	ld	a5,0(a5)
   106a8:	fcf43c23          	sd	a5,-40(s0)
      for (fp = g->_iobs, n = g->_niobs; --n >= 0; fp++)
   106ac:	bf51                	j	10640 <__sfp+0x1c>
	break;
   106ae:	0001                	nop
    }
  _newlib_sfp_lock_exit ();
  _REENT_ERRNO(d) = ENOMEM;
   106b0:	fc843783          	ld	a5,-56(s0)
   106b4:	4731                	li	a4,12
   106b6:	c398                	sw	a4,0(a5)
  return NULL;
   106b8:	4781                	li	a5,0
   106ba:	a059                	j	10740 <__sfp+0x11c>
	  goto found;
   106bc:	0001                	nop

found:
  fp->_file = -1;		/* no file */
   106be:	fe843783          	ld	a5,-24(s0)
   106c2:	577d                	li	a4,-1
   106c4:	00e79923          	sh	a4,18(a5)
  fp->_flags = 1;		/* reserve this slot; caller sets real flags */
   106c8:	fe843783          	ld	a5,-24(s0)
   106cc:	4705                	li	a4,1
   106ce:	00e79823          	sh	a4,16(a5)
  fp->_flags2 = 0;
   106d2:	fe843783          	ld	a5,-24(s0)
   106d6:	0a07a423          	sw	zero,168(a5)
#ifndef __SINGLE_THREAD__
  __lock_init_recursive (fp->_lock);
#endif
  _newlib_sfp_lock_end ();

  fp->_p = NULL;		/* no current pointer */
   106da:	fe843783          	ld	a5,-24(s0)
   106de:	0007b023          	sd	zero,0(a5)
  fp->_w = 0;			/* nothing to read or write */
   106e2:	fe843783          	ld	a5,-24(s0)
   106e6:	0007a623          	sw	zero,12(a5)
  fp->_r = 0;
   106ea:	fe843783          	ld	a5,-24(s0)
   106ee:	0007a423          	sw	zero,8(a5)
  fp->_bf._base = NULL;		/* no buffer */
   106f2:	fe843783          	ld	a5,-24(s0)
   106f6:	0007bc23          	sd	zero,24(a5)
  fp->_bf._size = 0;
   106fa:	fe843783          	ld	a5,-24(s0)
   106fe:	0207a023          	sw	zero,32(a5)
  fp->_lbfsize = 0;		/* not line buffered */
   10702:	fe843783          	ld	a5,-24(s0)
   10706:	0207a423          	sw	zero,40(a5)
  memset (&fp->_mbstate, 0, sizeof (_mbstate_t));
   1070a:	fe843783          	ld	a5,-24(s0)
   1070e:	0a078793          	addi	a5,a5,160
   10712:	4621                	li	a2,8
   10714:	4581                	li	a1,0
   10716:	853e                	mv	a0,a5
   10718:	51b000ef          	jal	11432 <memset>
  /* fp->_cookie = <any>; */	/* caller sets cookie, _read/_write etc */
  fp->_ub._base = NULL;		/* no ungetc buffer */
   1071c:	fe843783          	ld	a5,-24(s0)
   10720:	0607b023          	sd	zero,96(a5)
  fp->_ub._size = 0;
   10724:	fe843783          	ld	a5,-24(s0)
   10728:	0607a423          	sw	zero,104(a5)
  fp->_lb._base = NULL;		/* no line buffer */
   1072c:	fe843783          	ld	a5,-24(s0)
   10730:	0807b023          	sd	zero,128(a5)
  fp->_lb._size = 0;
   10734:	fe843783          	ld	a5,-24(s0)
   10738:	0807a423          	sw	zero,136(a5)

  return fp;
   1073c:	fe843783          	ld	a5,-24(s0)
}
   10740:	853e                	mv	a0,a5
   10742:	70e2                	ld	ra,56(sp)
   10744:	7442                	ld	s0,48(sp)
   10746:	6121                	addi	sp,sp,64
   10748:	8082                	ret

000000000001074a <cleanup_stdio>:
 * The name `_cleanup' is, alas, fairly well known outside stdio.
 */

static void
cleanup_stdio (struct _reent *ptr)
{
   1074a:	1101                	addi	sp,sp,-32
   1074c:	ec06                	sd	ra,24(sp)
   1074e:	e822                	sd	s0,16(sp)
   10750:	1000                	addi	s0,sp,32
   10752:	fea43423          	sd	a0,-24(s0)
  if (_REENT_STDIN(ptr) != &__sf[0])
   10756:	fe843783          	ld	a5,-24(s0)
   1075a:	6798                	ld	a4,8(a5)
   1075c:	00006797          	auipc	a5,0x6
   10760:	5c478793          	addi	a5,a5,1476 # 16d20 <__sf>
   10764:	00f70a63          	beq	a4,a5,10778 <cleanup_stdio+0x2e>
    CLEANUP_FILE (ptr, _REENT_STDIN(ptr));
   10768:	fe843783          	ld	a5,-24(s0)
   1076c:	679c                	ld	a5,8(a5)
   1076e:	85be                	mv	a1,a5
   10770:	fe843503          	ld	a0,-24(s0)
   10774:	693020ef          	jal	13606 <_fclose_r>
  if (_REENT_STDOUT(ptr) != &__sf[1])
   10778:	fe843783          	ld	a5,-24(s0)
   1077c:	6b98                	ld	a4,16(a5)
   1077e:	00006797          	auipc	a5,0x6
   10782:	65278793          	addi	a5,a5,1618 # 16dd0 <__sf+0xb0>
   10786:	00f70a63          	beq	a4,a5,1079a <cleanup_stdio+0x50>
    CLEANUP_FILE (ptr, _REENT_STDOUT(ptr));
   1078a:	fe843783          	ld	a5,-24(s0)
   1078e:	6b9c                	ld	a5,16(a5)
   10790:	85be                	mv	a1,a5
   10792:	fe843503          	ld	a0,-24(s0)
   10796:	671020ef          	jal	13606 <_fclose_r>
  if (_REENT_STDERR(ptr) != &__sf[2])
   1079a:	fe843783          	ld	a5,-24(s0)
   1079e:	6f98                	ld	a4,24(a5)
   107a0:	9b818793          	addi	a5,gp,-1608 # 16e80 <__sf+0x160>
   107a4:	00f70a63          	beq	a4,a5,107b8 <cleanup_stdio+0x6e>
    CLEANUP_FILE (ptr, _REENT_STDERR(ptr));
   107a8:	fe843783          	ld	a5,-24(s0)
   107ac:	6f9c                	ld	a5,24(a5)
   107ae:	85be                	mv	a1,a5
   107b0:	fe843503          	ld	a0,-24(s0)
   107b4:	653020ef          	jal	13606 <_fclose_r>
}
   107b8:	0001                	nop
   107ba:	60e2                	ld	ra,24(sp)
   107bc:	6442                	ld	s0,16(sp)
   107be:	6105                	addi	sp,sp,32
   107c0:	8082                	ret

00000000000107c2 <__sinit>:
 * __sinit() is called whenever stdio's internal variables must be set up.
 */

void
__sinit (struct _reent *s)
{
   107c2:	1101                	addi	sp,sp,-32
   107c4:	ec06                	sd	ra,24(sp)
   107c6:	e822                	sd	s0,16(sp)
   107c8:	1000                	addi	s0,sp,32
   107ca:	fea43423          	sd	a0,-24(s0)
  __sfp_lock_acquire ();

  if (_REENT_CLEANUP(s))
   107ce:	fe843783          	ld	a5,-24(s0)
   107d2:	63bc                	ld	a5,64(a5)
   107d4:	eb99                	bnez	a5,107ea <__sinit+0x28>
      __sfp_lock_release ();
      return;
    }

  /* make sure we clean up on exit */
  _REENT_CLEANUP(s) = cleanup_stdio;	/* conservative */
   107d6:	fe843783          	ld	a5,-24(s0)
   107da:	00000717          	auipc	a4,0x0
   107de:	f7070713          	addi	a4,a4,-144 # 1074a <cleanup_stdio>
   107e2:	e3b8                	sd	a4,64(a5)

  global_stdio_init ();
   107e4:	df9ff0ef          	jal	105dc <global_stdio_init>
   107e8:	a011                	j	107ec <__sinit+0x2a>
      return;
   107ea:	0001                	nop
  __sfp_lock_release ();
}
   107ec:	60e2                	ld	ra,24(sp)
   107ee:	6442                	ld	s0,16(sp)
   107f0:	6105                	addi	sp,sp,32
   107f2:	8082                	ret

00000000000107f4 <_fwalk_sglue>:
#include <errno.h>

int
_fwalk_sglue (struct _reent *ptr, int (*func) (struct _reent *, FILE *),
    struct _glue *g)
{
   107f4:	7139                	addi	sp,sp,-64
   107f6:	fc06                	sd	ra,56(sp)
   107f8:	f822                	sd	s0,48(sp)
   107fa:	0080                	addi	s0,sp,64
   107fc:	fca43c23          	sd	a0,-40(s0)
   10800:	fcb43823          	sd	a1,-48(s0)
   10804:	fcc43423          	sd	a2,-56(s0)
  FILE *fp;
  int n, ret = 0;
   10808:	fe042023          	sw	zero,-32(s0)
   *
   * Avoid locking this list while walking it or else you will
   * introduce a potential deadlock in [at least] refill.c.
   */
  do {
    for (fp = g->_iobs, n = g->_niobs; --n >= 0; fp++)
   1080c:	fc843783          	ld	a5,-56(s0)
   10810:	6b9c                	ld	a5,16(a5)
   10812:	fef43423          	sd	a5,-24(s0)
   10816:	fc843783          	ld	a5,-56(s0)
   1081a:	479c                	lw	a5,8(a5)
   1081c:	fef42223          	sw	a5,-28(s0)
   10820:	a891                	j	10874 <_fwalk_sglue+0x80>
      if (fp->_flags != 0 && fp->_flags != 1 && fp->_file != -1)
   10822:	fe843783          	ld	a5,-24(s0)
   10826:	01079783          	lh	a5,16(a5)
   1082a:	cf9d                	beqz	a5,10868 <_fwalk_sglue+0x74>
   1082c:	fe843783          	ld	a5,-24(s0)
   10830:	01079783          	lh	a5,16(a5)
   10834:	873e                	mv	a4,a5
   10836:	4785                	li	a5,1
   10838:	02f70863          	beq	a4,a5,10868 <_fwalk_sglue+0x74>
   1083c:	fe843783          	ld	a5,-24(s0)
   10840:	01279783          	lh	a5,18(a5)
   10844:	873e                	mv	a4,a5
   10846:	57fd                	li	a5,-1
   10848:	02f70063          	beq	a4,a5,10868 <_fwalk_sglue+0x74>
	ret |= (*func) (ptr, fp);
   1084c:	fd043783          	ld	a5,-48(s0)
   10850:	fe843583          	ld	a1,-24(s0)
   10854:	fd843503          	ld	a0,-40(s0)
   10858:	9782                	jalr	a5
   1085a:	87aa                	mv	a5,a0
   1085c:	873e                	mv	a4,a5
   1085e:	fe042783          	lw	a5,-32(s0)
   10862:	8fd9                	or	a5,a5,a4
   10864:	fef42023          	sw	a5,-32(s0)
    for (fp = g->_iobs, n = g->_niobs; --n >= 0; fp++)
   10868:	fe843783          	ld	a5,-24(s0)
   1086c:	0b078793          	addi	a5,a5,176
   10870:	fef43423          	sd	a5,-24(s0)
   10874:	fe442783          	lw	a5,-28(s0)
   10878:	37fd                	addiw	a5,a5,-1
   1087a:	fef42223          	sw	a5,-28(s0)
   1087e:	fe442783          	lw	a5,-28(s0)
   10882:	2781                	sext.w	a5,a5
   10884:	f807dfe3          	bgez	a5,10822 <_fwalk_sglue+0x2e>
    g = g->_next;
   10888:	fc843783          	ld	a5,-56(s0)
   1088c:	639c                	ld	a5,0(a5)
   1088e:	fcf43423          	sd	a5,-56(s0)
  } while (g != NULL);
   10892:	fc843783          	ld	a5,-56(s0)
   10896:	fbbd                	bnez	a5,1080c <_fwalk_sglue+0x18>

  return ret;
   10898:	fe042783          	lw	a5,-32(s0)
}
   1089c:	853e                	mv	a0,a5
   1089e:	70e2                	ld	ra,56(sp)
   108a0:	7442                	ld	s0,48(sp)
   108a2:	6121                	addi	sp,sp,64
   108a4:	8082                	ret

00000000000108a6 <__sputc_r>:
   108a6:	7179                	addi	sp,sp,-48
   108a8:	f406                	sd	ra,40(sp)
   108aa:	f022                	sd	s0,32(sp)
   108ac:	1800                	addi	s0,sp,48
   108ae:	fea43423          	sd	a0,-24(s0)
   108b2:	87ae                	mv	a5,a1
   108b4:	fcc43c23          	sd	a2,-40(s0)
   108b8:	fef42223          	sw	a5,-28(s0)
   108bc:	fd843783          	ld	a5,-40(s0)
   108c0:	47dc                	lw	a5,12(a5)
   108c2:	37fd                	addiw	a5,a5,-1
   108c4:	0007871b          	sext.w	a4,a5
   108c8:	fd843783          	ld	a5,-40(s0)
   108cc:	c7d8                	sw	a4,12(a5)
   108ce:	fd843783          	ld	a5,-40(s0)
   108d2:	47dc                	lw	a5,12(a5)
   108d4:	0207d263          	bgez	a5,108f8 <__sputc_r+0x52>
   108d8:	fd843783          	ld	a5,-40(s0)
   108dc:	47d8                	lw	a4,12(a5)
   108de:	fd843783          	ld	a5,-40(s0)
   108e2:	579c                	lw	a5,40(a5)
   108e4:	02f74c63          	blt	a4,a5,1091c <__sputc_r+0x76>
   108e8:	fe442783          	lw	a5,-28(s0)
   108ec:	0ff7f793          	zext.b	a5,a5
   108f0:	873e                	mv	a4,a5
   108f2:	47a9                	li	a5,10
   108f4:	02f70463          	beq	a4,a5,1091c <__sputc_r+0x76>
   108f8:	fd843783          	ld	a5,-40(s0)
   108fc:	639c                	ld	a5,0(a5)
   108fe:	00178693          	addi	a3,a5,1
   10902:	fd843703          	ld	a4,-40(s0)
   10906:	e314                	sd	a3,0(a4)
   10908:	fe442703          	lw	a4,-28(s0)
   1090c:	0ff77713          	zext.b	a4,a4
   10910:	00e78023          	sb	a4,0(a5)
   10914:	0007c783          	lbu	a5,0(a5)
   10918:	2781                	sext.w	a5,a5
   1091a:	a819                	j	10930 <__sputc_r+0x8a>
   1091c:	fe442783          	lw	a5,-28(s0)
   10920:	fd843603          	ld	a2,-40(s0)
   10924:	85be                	mv	a1,a5
   10926:	fe843503          	ld	a0,-24(s0)
   1092a:	3c0000ef          	jal	10cea <__swbuf_r>
   1092e:	87aa                	mv	a5,a0
   10930:	853e                	mv	a0,a5
   10932:	70a2                	ld	ra,40(sp)
   10934:	7402                	ld	s0,32(sp)
   10936:	6145                	addi	sp,sp,48
   10938:	8082                	ret

000000000001093a <_puts_r>:
{
   1093a:	7139                	addi	sp,sp,-64
   1093c:	fc06                	sd	ra,56(sp)
   1093e:	f822                	sd	s0,48(sp)
   10940:	0080                	addi	s0,sp,64
   10942:	fca43423          	sd	a0,-56(s0)
   10946:	fcb43023          	sd	a1,-64(s0)
  int result = EOF;
   1094a:	57fd                	li	a5,-1
   1094c:	fef42623          	sw	a5,-20(s0)
  const char *p = s;
   10950:	fc043783          	ld	a5,-64(s0)
   10954:	fef43023          	sd	a5,-32(s0)
  fp = _stdout_r (ptr);
   10958:	fc843783          	ld	a5,-56(s0)
   1095c:	6b9c                	ld	a5,16(a5)
   1095e:	fcf43c23          	sd	a5,-40(s0)
  CHECK_INIT (ptr, fp);
   10962:	fc843783          	ld	a5,-56(s0)
   10966:	fcf43823          	sd	a5,-48(s0)
   1096a:	fd043783          	ld	a5,-48(s0)
   1096e:	cb89                	beqz	a5,10980 <_puts_r+0x46>
   10970:	fd043783          	ld	a5,-48(s0)
   10974:	63bc                	ld	a5,64(a5)
   10976:	e789                	bnez	a5,10980 <_puts_r+0x46>
   10978:	fd043503          	ld	a0,-48(s0)
   1097c:	e47ff0ef          	jal	107c2 <__sinit>
  if (cantwrite (ptr, fp))
   10980:	fd843783          	ld	a5,-40(s0)
   10984:	01079783          	lh	a5,16(a5)
   10988:	17c2                	slli	a5,a5,0x30
   1098a:	93c1                	srli	a5,a5,0x30
   1098c:	2781                	sext.w	a5,a5
   1098e:	8ba1                	andi	a5,a5,8
   10990:	2781                	sext.w	a5,a5
   10992:	c789                	beqz	a5,1099c <_puts_r+0x62>
   10994:	fd843783          	ld	a5,-40(s0)
   10998:	6f9c                	ld	a5,24(a5)
   1099a:	ef9d                	bnez	a5,109d8 <_puts_r+0x9e>
   1099c:	fd843583          	ld	a1,-40(s0)
   109a0:	fc843503          	ld	a0,-56(s0)
   109a4:	4b2000ef          	jal	10e56 <__swsetup_r>
   109a8:	87aa                	mv	a5,a0
   109aa:	efa1                	bnez	a5,10a02 <_puts_r+0xc8>
  while (*p)
   109ac:	a035                	j	109d8 <_puts_r+0x9e>
      if (__sputc_r (ptr, *p++, fp) == EOF)
   109ae:	fe043783          	ld	a5,-32(s0)
   109b2:	00178713          	addi	a4,a5,1
   109b6:	fee43023          	sd	a4,-32(s0)
   109ba:	0007c783          	lbu	a5,0(a5)
   109be:	2781                	sext.w	a5,a5
   109c0:	fd843603          	ld	a2,-40(s0)
   109c4:	85be                	mv	a1,a5
   109c6:	fc843503          	ld	a0,-56(s0)
   109ca:	eddff0ef          	jal	108a6 <__sputc_r>
   109ce:	87aa                	mv	a5,a0
   109d0:	873e                	mv	a4,a5
   109d2:	57fd                	li	a5,-1
   109d4:	02f70963          	beq	a4,a5,10a06 <_puts_r+0xcc>
  while (*p)
   109d8:	fe043783          	ld	a5,-32(s0)
   109dc:	0007c783          	lbu	a5,0(a5)
   109e0:	f7f9                	bnez	a5,109ae <_puts_r+0x74>
  if (__sputc_r (ptr, '\n', fp) == EOF)
   109e2:	fd843603          	ld	a2,-40(s0)
   109e6:	45a9                	li	a1,10
   109e8:	fc843503          	ld	a0,-56(s0)
   109ec:	ebbff0ef          	jal	108a6 <__sputc_r>
   109f0:	87aa                	mv	a5,a0
   109f2:	873e                	mv	a4,a5
   109f4:	57fd                	li	a5,-1
   109f6:	00f70a63          	beq	a4,a5,10a0a <_puts_r+0xd0>
  result = '\n';
   109fa:	47a9                	li	a5,10
   109fc:	fef42623          	sw	a5,-20(s0)
   10a00:	a031                	j	10a0c <_puts_r+0xd2>
    goto err;
   10a02:	0001                	nop
   10a04:	a021                	j	10a0c <_puts_r+0xd2>
	goto err;
   10a06:	0001                	nop
   10a08:	a011                	j	10a0c <_puts_r+0xd2>
    goto err;
   10a0a:	0001                	nop
  return result;
   10a0c:	fec42783          	lw	a5,-20(s0)
}
   10a10:	853e                	mv	a0,a5
   10a12:	70e2                	ld	ra,56(sp)
   10a14:	7442                	ld	s0,48(sp)
   10a16:	6121                	addi	sp,sp,64
   10a18:	8082                	ret

0000000000010a1a <puts>:
{
   10a1a:	1101                	addi	sp,sp,-32
   10a1c:	ec06                	sd	ra,24(sp)
   10a1e:	e822                	sd	s0,16(sp)
   10a20:	1000                	addi	s0,sp,32
   10a22:	fea43423          	sd	a0,-24(s0)
  return _puts_r (_REENT, s);
   10a26:	00006797          	auipc	a5,0x6
   10a2a:	2a278793          	addi	a5,a5,674 # 16cc8 <_impure_ptr>
   10a2e:	639c                	ld	a5,0(a5)
   10a30:	fe843583          	ld	a1,-24(s0)
   10a34:	853e                	mv	a0,a5
   10a36:	f05ff0ef          	jal	1093a <_puts_r>
   10a3a:	87aa                	mv	a5,a0
}
   10a3c:	853e                	mv	a0,a5
   10a3e:	60e2                	ld	ra,24(sp)
   10a40:	6442                	ld	s0,16(sp)
   10a42:	6105                	addi	sp,sp,32
   10a44:	8082                	ret

0000000000010a46 <iscanf>:

#ifndef _REENT_ONLY

int
scanf(const char *__restrict fmt, ...)
{
   10a46:	7119                	addi	sp,sp,-128
   10a48:	fc06                	sd	ra,56(sp)
   10a4a:	f822                	sd	s0,48(sp)
   10a4c:	0080                	addi	s0,sp,64
   10a4e:	fca43423          	sd	a0,-56(s0)
   10a52:	e40c                	sd	a1,8(s0)
   10a54:	e810                	sd	a2,16(s0)
   10a56:	ec14                	sd	a3,24(s0)
   10a58:	f018                	sd	a4,32(s0)
   10a5a:	f41c                	sd	a5,40(s0)
   10a5c:	03043823          	sd	a6,48(s0)
   10a60:	03143c23          	sd	a7,56(s0)
  int ret;
  va_list ap;
  struct _reent *reent = _REENT;
   10a64:	00006797          	auipc	a5,0x6
   10a68:	26478793          	addi	a5,a5,612 # 16cc8 <_impure_ptr>
   10a6c:	639c                	ld	a5,0(a5)
   10a6e:	fef43423          	sd	a5,-24(s0)

  _REENT_SMALL_CHECK_INIT (reent);
  va_start (ap, fmt);
   10a72:	04040793          	addi	a5,s0,64
   10a76:	fcf43023          	sd	a5,-64(s0)
   10a7a:	fc043783          	ld	a5,-64(s0)
   10a7e:	fc878793          	addi	a5,a5,-56
   10a82:	fcf43c23          	sd	a5,-40(s0)
  ret = _vfscanf_r (reent, _stdin_r (reent), fmt, ap);
   10a86:	fe843783          	ld	a5,-24(s0)
   10a8a:	679c                	ld	a5,8(a5)
   10a8c:	fd843703          	ld	a4,-40(s0)
   10a90:	86ba                	mv	a3,a4
   10a92:	fc843603          	ld	a2,-56(s0)
   10a96:	85be                	mv	a1,a5
   10a98:	fe843503          	ld	a0,-24(s0)
   10a9c:	028020ef          	jal	12ac4 <_vfiscanf_r>
   10aa0:	87aa                	mv	a5,a0
   10aa2:	fef42223          	sw	a5,-28(s0)
  va_end (ap);
  return ret;
   10aa6:	fe442783          	lw	a5,-28(s0)
}
   10aaa:	853e                	mv	a0,a5
   10aac:	70e2                	ld	ra,56(sp)
   10aae:	7442                	ld	s0,48(sp)
   10ab0:	6109                	addi	sp,sp,128
   10ab2:	8082                	ret

0000000000010ab4 <_iscanf_r>:

#endif /* !_REENT_ONLY */

int
_scanf_r(struct _reent *ptr, const char *__restrict fmt, ...)
{
   10ab4:	7159                	addi	sp,sp,-112
   10ab6:	fc06                	sd	ra,56(sp)
   10ab8:	f822                	sd	s0,48(sp)
   10aba:	0080                	addi	s0,sp,64
   10abc:	fca43c23          	sd	a0,-40(s0)
   10ac0:	fcb43823          	sd	a1,-48(s0)
   10ac4:	e010                	sd	a2,0(s0)
   10ac6:	e414                	sd	a3,8(s0)
   10ac8:	e818                	sd	a4,16(s0)
   10aca:	ec1c                	sd	a5,24(s0)
   10acc:	03043023          	sd	a6,32(s0)
   10ad0:	03143423          	sd	a7,40(s0)
  int ret;
  va_list ap;

  _REENT_SMALL_CHECK_INIT (ptr);
  va_start (ap, fmt);
   10ad4:	03040793          	addi	a5,s0,48
   10ad8:	fcf43423          	sd	a5,-56(s0)
   10adc:	fc843783          	ld	a5,-56(s0)
   10ae0:	fd078793          	addi	a5,a5,-48
   10ae4:	fef43023          	sd	a5,-32(s0)
  ret = _vfscanf_r (ptr, _stdin_r (ptr), fmt, ap);
   10ae8:	fd843783          	ld	a5,-40(s0)
   10aec:	679c                	ld	a5,8(a5)
   10aee:	fe043703          	ld	a4,-32(s0)
   10af2:	86ba                	mv	a3,a4
   10af4:	fd043603          	ld	a2,-48(s0)
   10af8:	85be                	mv	a1,a5
   10afa:	fd843503          	ld	a0,-40(s0)
   10afe:	7c7010ef          	jal	12ac4 <_vfiscanf_r>
   10b02:	87aa                	mv	a5,a0
   10b04:	fef42623          	sw	a5,-20(s0)
  va_end (ap);
  return (ret);
   10b08:	fec42783          	lw	a5,-20(s0)
}
   10b0c:	853e                	mv	a0,a5
   10b0e:	70e2                	ld	ra,56(sp)
   10b10:	7442                	ld	s0,48(sp)
   10b12:	6165                	addi	sp,sp,112
   10b14:	8082                	ret

0000000000010b16 <__sread>:
_READ_WRITE_RETURN_TYPE
__sread (struct _reent *ptr,
       void *cookie,
       char *buf,
       _READ_WRITE_BUFSIZE_TYPE n)
{
   10b16:	7139                	addi	sp,sp,-64
   10b18:	fc06                	sd	ra,56(sp)
   10b1a:	f822                	sd	s0,48(sp)
   10b1c:	f426                	sd	s1,40(sp)
   10b1e:	f04a                	sd	s2,32(sp)
   10b20:	0080                	addi	s0,sp,64
   10b22:	fca43c23          	sd	a0,-40(s0)
   10b26:	fcb43823          	sd	a1,-48(s0)
   10b2a:	fcc43423          	sd	a2,-56(s0)
   10b2e:	87b6                	mv	a5,a3
   10b30:	fcf42223          	sw	a5,-60(s0)
  register FILE *fp = (FILE *) cookie;
   10b34:	fd043483          	ld	s1,-48(s0)
  int oldmode = 0;
  if (fp->_flags & __SCLE)
    oldmode = setmode (fp->_file, O_BINARY);
#endif

  ret = _read_r (ptr, fp->_file, buf, n);
   10b38:	01249783          	lh	a5,18(s1)
   10b3c:	873e                	mv	a4,a5
   10b3e:	fc442783          	lw	a5,-60(s0)
   10b42:	86be                	mv	a3,a5
   10b44:	fc843603          	ld	a2,-56(s0)
   10b48:	85ba                	mv	a1,a4
   10b4a:	fd843503          	ld	a0,-40(s0)
   10b4e:	716000ef          	jal	11264 <_read_r>
   10b52:	892a                	mv	s2,a0
    setmode (fp->_file, oldmode);
#endif

  /* If the read succeeded, update the current offset.  */

  if (ret >= 0)
   10b54:	00094663          	bltz	s2,10b60 <__sread+0x4a>
    fp->_offset += ret;
   10b58:	6cdc                	ld	a5,152(s1)
   10b5a:	97ca                	add	a5,a5,s2
   10b5c:	ecdc                	sd	a5,152(s1)
   10b5e:	a821                	j	10b76 <__sread+0x60>
  else
    fp->_flags &= ~__SOFF;	/* paranoia */
   10b60:	01049703          	lh	a4,16(s1)
   10b64:	77fd                	lui	a5,0xfffff
   10b66:	17fd                	addi	a5,a5,-1 # ffffffffffffefff <_eheap+0xfffffffffffe5b6f>
   10b68:	8ff9                	and	a5,a5,a4
   10b6a:	0107979b          	slliw	a5,a5,0x10
   10b6e:	4107d79b          	sraiw	a5,a5,0x10
   10b72:	00f49823          	sh	a5,16(s1)
  return ret;
   10b76:	87ca                	mv	a5,s2
}
   10b78:	853e                	mv	a0,a5
   10b7a:	70e2                	ld	ra,56(sp)
   10b7c:	7442                	ld	s0,48(sp)
   10b7e:	74a2                	ld	s1,40(sp)
   10b80:	7902                	ld	s2,32(sp)
   10b82:	6121                	addi	sp,sp,64
   10b84:	8082                	ret

0000000000010b86 <__seofread>:
_READ_WRITE_RETURN_TYPE
__seofread (struct _reent *_ptr,
       void *cookie,
       char *buf,
       _READ_WRITE_BUFSIZE_TYPE len)
{
   10b86:	7179                	addi	sp,sp,-48
   10b88:	f422                	sd	s0,40(sp)
   10b8a:	1800                	addi	s0,sp,48
   10b8c:	fea43423          	sd	a0,-24(s0)
   10b90:	feb43023          	sd	a1,-32(s0)
   10b94:	fcc43c23          	sd	a2,-40(s0)
   10b98:	87b6                	mv	a5,a3
   10b9a:	fcf42a23          	sw	a5,-44(s0)
  return 0;
   10b9e:	4781                	li	a5,0
}
   10ba0:	853e                	mv	a0,a5
   10ba2:	7422                	ld	s0,40(sp)
   10ba4:	6145                	addi	sp,sp,48
   10ba6:	8082                	ret

0000000000010ba8 <__swrite>:
_READ_WRITE_RETURN_TYPE
__swrite (struct _reent *ptr,
       void *cookie,
       char const *buf,
       _READ_WRITE_BUFSIZE_TYPE n)
{
   10ba8:	715d                	addi	sp,sp,-80
   10baa:	e486                	sd	ra,72(sp)
   10bac:	e0a2                	sd	s0,64(sp)
   10bae:	fc26                	sd	s1,56(sp)
   10bb0:	0880                	addi	s0,sp,80
   10bb2:	fca43423          	sd	a0,-56(s0)
   10bb6:	fcb43023          	sd	a1,-64(s0)
   10bba:	fac43c23          	sd	a2,-72(s0)
   10bbe:	87b6                	mv	a5,a3
   10bc0:	faf42a23          	sw	a5,-76(s0)
  register FILE *fp = (FILE *) cookie;
   10bc4:	fc043483          	ld	s1,-64(s0)
  ssize_t w;
#ifdef __SCLE
  int oldmode=0;
#endif

  if (fp->_flags & __SAPP)
   10bc8:	01049783          	lh	a5,16(s1)
   10bcc:	17c2                	slli	a5,a5,0x30
   10bce:	93c1                	srli	a5,a5,0x30
   10bd0:	2781                	sext.w	a5,a5
   10bd2:	1007f793          	andi	a5,a5,256
   10bd6:	2781                	sext.w	a5,a5
   10bd8:	cb91                	beqz	a5,10bec <__swrite+0x44>
    _lseek_r (ptr, fp->_file, (_off_t) 0, SEEK_END);
   10bda:	01249783          	lh	a5,18(s1)
   10bde:	4689                	li	a3,2
   10be0:	4601                	li	a2,0
   10be2:	85be                	mv	a1,a5
   10be4:	fc843503          	ld	a0,-56(s0)
   10be8:	612000ef          	jal	111fa <_lseek_r>
  fp->_flags &= ~__SOFF;	/* in case O_APPEND mode is set */
   10bec:	01049703          	lh	a4,16(s1)
   10bf0:	77fd                	lui	a5,0xfffff
   10bf2:	17fd                	addi	a5,a5,-1 # ffffffffffffefff <_eheap+0xfffffffffffe5b6f>
   10bf4:	8ff9                	and	a5,a5,a4
   10bf6:	0107979b          	slliw	a5,a5,0x10
   10bfa:	4107d79b          	sraiw	a5,a5,0x10
   10bfe:	00f49823          	sh	a5,16(s1)
#ifdef __SCLE
  if (fp->_flags & __SCLE)
    oldmode = setmode (fp->_file, O_BINARY);
#endif

  w = _write_r (ptr, fp->_file, buf, n);
   10c02:	01249783          	lh	a5,18(s1)
   10c06:	873e                	mv	a4,a5
   10c08:	fb442783          	lw	a5,-76(s0)
   10c0c:	86be                	mv	a3,a5
   10c0e:	fb843603          	ld	a2,-72(s0)
   10c12:	85ba                	mv	a1,a4
   10c14:	fc843503          	ld	a0,-56(s0)
   10c18:	6b0000ef          	jal	112c8 <_write_r>
   10c1c:	fca43c23          	sd	a0,-40(s0)
#ifdef __SCLE
  if (oldmode)
    setmode (fp->_file, oldmode);
#endif

  return w;
   10c20:	fd843783          	ld	a5,-40(s0)
}
   10c24:	853e                	mv	a0,a5
   10c26:	60a6                	ld	ra,72(sp)
   10c28:	6406                	ld	s0,64(sp)
   10c2a:	74e2                	ld	s1,56(sp)
   10c2c:	6161                	addi	sp,sp,80
   10c2e:	8082                	ret

0000000000010c30 <__sseek>:
_fpos_t
__sseek (struct _reent *ptr,
       void *cookie,
       _fpos_t offset,
       int whence)
{
   10c30:	7139                	addi	sp,sp,-64
   10c32:	fc06                	sd	ra,56(sp)
   10c34:	f822                	sd	s0,48(sp)
   10c36:	f426                	sd	s1,40(sp)
   10c38:	f04a                	sd	s2,32(sp)
   10c3a:	0080                	addi	s0,sp,64
   10c3c:	fca43c23          	sd	a0,-40(s0)
   10c40:	fcb43823          	sd	a1,-48(s0)
   10c44:	fcc43423          	sd	a2,-56(s0)
   10c48:	87b6                	mv	a5,a3
   10c4a:	fcf42223          	sw	a5,-60(s0)
  register FILE *fp = (FILE *) cookie;
   10c4e:	fd043483          	ld	s1,-48(s0)
  register _off_t ret;

  ret = _lseek_r (ptr, fp->_file, (_off_t) offset, whence);
   10c52:	01249783          	lh	a5,18(s1)
   10c56:	873e                	mv	a4,a5
   10c58:	fc442783          	lw	a5,-60(s0)
   10c5c:	86be                	mv	a3,a5
   10c5e:	fc843603          	ld	a2,-56(s0)
   10c62:	85ba                	mv	a1,a4
   10c64:	fd843503          	ld	a0,-40(s0)
   10c68:	592000ef          	jal	111fa <_lseek_r>
   10c6c:	892a                	mv	s2,a0
  if (ret == -1L)
   10c6e:	57fd                	li	a5,-1
   10c70:	00f91e63          	bne	s2,a5,10c8c <__sseek+0x5c>
    fp->_flags &= ~__SOFF;
   10c74:	01049703          	lh	a4,16(s1)
   10c78:	77fd                	lui	a5,0xfffff
   10c7a:	17fd                	addi	a5,a5,-1 # ffffffffffffefff <_eheap+0xfffffffffffe5b6f>
   10c7c:	8ff9                	and	a5,a5,a4
   10c7e:	0107979b          	slliw	a5,a5,0x10
   10c82:	4107d79b          	sraiw	a5,a5,0x10
   10c86:	00f49823          	sh	a5,16(s1)
   10c8a:	a829                	j	10ca4 <__sseek+0x74>
  else
    {
      fp->_flags |= __SOFF;
   10c8c:	01049703          	lh	a4,16(s1)
   10c90:	6785                	lui	a5,0x1
   10c92:	8fd9                	or	a5,a5,a4
   10c94:	0107979b          	slliw	a5,a5,0x10
   10c98:	4107d79b          	sraiw	a5,a5,0x10
   10c9c:	00f49823          	sh	a5,16(s1)
      fp->_offset = ret;
   10ca0:	0924bc23          	sd	s2,152(s1)
    }
  return ret;
   10ca4:	87ca                	mv	a5,s2
}
   10ca6:	853e                	mv	a0,a5
   10ca8:	70e2                	ld	ra,56(sp)
   10caa:	7442                	ld	s0,48(sp)
   10cac:	74a2                	ld	s1,40(sp)
   10cae:	7902                	ld	s2,32(sp)
   10cb0:	6121                	addi	sp,sp,64
   10cb2:	8082                	ret

0000000000010cb4 <__sclose>:

int
__sclose (struct _reent *ptr,
       void *cookie)
{
   10cb4:	7179                	addi	sp,sp,-48
   10cb6:	f406                	sd	ra,40(sp)
   10cb8:	f022                	sd	s0,32(sp)
   10cba:	1800                	addi	s0,sp,48
   10cbc:	fca43c23          	sd	a0,-40(s0)
   10cc0:	fcb43823          	sd	a1,-48(s0)
  FILE *fp = (FILE *) cookie;
   10cc4:	fd043783          	ld	a5,-48(s0)
   10cc8:	fef43423          	sd	a5,-24(s0)

  return _close_r (ptr, fp->_file);
   10ccc:	fe843783          	ld	a5,-24(s0)
   10cd0:	01279783          	lh	a5,18(a5) # 1012 <__stack_size+0xc12>
   10cd4:	85be                	mv	a1,a5
   10cd6:	fd843503          	ld	a0,-40(s0)
   10cda:	2f4000ef          	jal	10fce <_close_r>
   10cde:	87aa                	mv	a5,a0
}
   10ce0:	853e                	mv	a0,a5
   10ce2:	70a2                	ld	ra,40(sp)
   10ce4:	7402                	ld	s0,32(sp)
   10ce6:	6145                	addi	sp,sp,48
   10ce8:	8082                	ret

0000000000010cea <__swbuf_r>:

int
__swbuf_r (struct _reent *ptr,
       register int c,
       register FILE *fp)
{
   10cea:	715d                	addi	sp,sp,-80
   10cec:	e486                	sd	ra,72(sp)
   10cee:	e0a2                	sd	s0,64(sp)
   10cf0:	fc26                	sd	s1,56(sp)
   10cf2:	f84a                	sd	s2,48(sp)
   10cf4:	f44e                	sd	s3,40(sp)
   10cf6:	0880                	addi	s0,sp,80
   10cf8:	faa43c23          	sd	a0,-72(s0)
   10cfc:	89ae                	mv	s3,a1
   10cfe:	84b2                	mv	s1,a2
  register int n;

  /* Ensure stdio has been initialized.  */

  CHECK_INIT (ptr, fp);
   10d00:	fb843783          	ld	a5,-72(s0)
   10d04:	fcf43423          	sd	a5,-56(s0)
   10d08:	fc843783          	ld	a5,-56(s0)
   10d0c:	cb89                	beqz	a5,10d1e <__swbuf_r+0x34>
   10d0e:	fc843783          	ld	a5,-56(s0)
   10d12:	63bc                	ld	a5,64(a5)
   10d14:	e789                	bnez	a5,10d1e <__swbuf_r+0x34>
   10d16:	fc843503          	ld	a0,-56(s0)
   10d1a:	aa9ff0ef          	jal	107c2 <__sinit>
   * (if line buffered) so that we will get called again.
   * If we did not do this, a sufficient number of putc()
   * calls might wrap _w from negative to positive.
   */

  fp->_w = fp->_lbfsize;
   10d1e:	549c                	lw	a5,40(s1)
   10d20:	c4dc                	sw	a5,12(s1)
  if (cantwrite (ptr, fp))
   10d22:	01049783          	lh	a5,16(s1)
   10d26:	17c2                	slli	a5,a5,0x30
   10d28:	93c1                	srli	a5,a5,0x30
   10d2a:	2781                	sext.w	a5,a5
   10d2c:	8ba1                	andi	a5,a5,8
   10d2e:	2781                	sext.w	a5,a5
   10d30:	c399                	beqz	a5,10d36 <__swbuf_r+0x4c>
   10d32:	6c9c                	ld	a5,24(s1)
   10d34:	eb91                	bnez	a5,10d48 <__swbuf_r+0x5e>
   10d36:	85a6                	mv	a1,s1
   10d38:	fb843503          	ld	a0,-72(s0)
   10d3c:	11a000ef          	jal	10e56 <__swsetup_r>
   10d40:	87aa                	mv	a5,a0
   10d42:	c399                	beqz	a5,10d48 <__swbuf_r+0x5e>
    return EOF;
   10d44:	57fd                	li	a5,-1
   10d46:	a8d1                	j	10e1a <__swbuf_r+0x130>
  c = (unsigned char) c;
   10d48:	0ff9f793          	zext.b	a5,s3
   10d4c:	0007899b          	sext.w	s3,a5

  if (ORIENT (fp, -1) != -1)
   10d50:	01049783          	lh	a5,16(s1)
   10d54:	17c2                	slli	a5,a5,0x30
   10d56:	93c1                	srli	a5,a5,0x30
   10d58:	0007871b          	sext.w	a4,a5
   10d5c:	6789                	lui	a5,0x2
   10d5e:	8ff9                	and	a5,a5,a4
   10d60:	2781                	sext.w	a5,a5
   10d62:	e39d                	bnez	a5,10d88 <__swbuf_r+0x9e>
   10d64:	01049703          	lh	a4,16(s1)
   10d68:	6789                	lui	a5,0x2
   10d6a:	8fd9                	or	a5,a5,a4
   10d6c:	0107979b          	slliw	a5,a5,0x10
   10d70:	4107d79b          	sraiw	a5,a5,0x10
   10d74:	00f49823          	sh	a5,16(s1)
   10d78:	0a84a703          	lw	a4,168(s1)
   10d7c:	77f9                	lui	a5,0xffffe
   10d7e:	17fd                	addi	a5,a5,-1 # ffffffffffffdfff <_eheap+0xfffffffffffe4b6f>
   10d80:	8ff9                	and	a5,a5,a4
   10d82:	2781                	sext.w	a5,a5
   10d84:	0af4a423          	sw	a5,168(s1)
   10d88:	0a84a783          	lw	a5,168(s1)
   10d8c:	40d7d79b          	sraiw	a5,a5,0xd
   10d90:	2781                	sext.w	a5,a5
   10d92:	8b85                	andi	a5,a5,1
   10d94:	0ff7f793          	zext.b	a5,a5
   10d98:	c399                	beqz	a5,10d9e <__swbuf_r+0xb4>
    return EOF;
   10d9a:	57fd                	li	a5,-1
   10d9c:	a8bd                	j	10e1a <__swbuf_r+0x130>
   * happen on unbuffered streams, where _bf._size==1; fflush()
   * guarantees that putc() will always call wbuf() by setting _w
   * to 0, so we need not do anything else.
   */

  n = fp->_p - fp->_bf._base;
   10d9e:	6098                	ld	a4,0(s1)
   10da0:	6c9c                	ld	a5,24(s1)
   10da2:	40f707b3          	sub	a5,a4,a5
   10da6:	0007891b          	sext.w	s2,a5
  if (n >= fp->_bf._size)
   10daa:	509c                	lw	a5,32(s1)
   10dac:	874a                	mv	a4,s2
   10dae:	00f74c63          	blt	a4,a5,10dc6 <__swbuf_r+0xdc>
    {
      if (_fflush_r (ptr, fp))
   10db2:	85a6                	mv	a1,s1
   10db4:	fb843503          	ld	a0,-72(s0)
   10db8:	3cf020ef          	jal	13986 <_fflush_r>
   10dbc:	87aa                	mv	a5,a0
   10dbe:	c399                	beqz	a5,10dc4 <__swbuf_r+0xda>
	return EOF;
   10dc0:	57fd                	li	a5,-1
   10dc2:	a8a1                	j	10e1a <__swbuf_r+0x130>
      n = 0;
   10dc4:	4901                	li	s2,0
    }
  fp->_w--;
   10dc6:	44dc                	lw	a5,12(s1)
   10dc8:	37fd                	addiw	a5,a5,-1
   10dca:	2781                	sext.w	a5,a5
   10dcc:	c4dc                	sw	a5,12(s1)
  *fp->_p++ = c;
   10dce:	609c                	ld	a5,0(s1)
   10dd0:	00178713          	addi	a4,a5,1
   10dd4:	e098                	sd	a4,0(s1)
   10dd6:	0ff9f713          	zext.b	a4,s3
   10dda:	00e78023          	sb	a4,0(a5)
  if (++n == fp->_bf._size || (fp->_flags & __SLBF && c == '\n'))
   10dde:	0019079b          	addiw	a5,s2,1
   10de2:	0007891b          	sext.w	s2,a5
   10de6:	509c                	lw	a5,32(s1)
   10de8:	874a                	mv	a4,s2
   10dea:	00f70e63          	beq	a4,a5,10e06 <__swbuf_r+0x11c>
   10dee:	01049783          	lh	a5,16(s1)
   10df2:	17c2                	slli	a5,a5,0x30
   10df4:	93c1                	srli	a5,a5,0x30
   10df6:	2781                	sext.w	a5,a5
   10df8:	8b85                	andi	a5,a5,1
   10dfa:	2781                	sext.w	a5,a5
   10dfc:	cf91                	beqz	a5,10e18 <__swbuf_r+0x12e>
   10dfe:	874e                	mv	a4,s3
   10e00:	47a9                	li	a5,10
   10e02:	00f71b63          	bne	a4,a5,10e18 <__swbuf_r+0x12e>
    if (_fflush_r (ptr, fp))
   10e06:	85a6                	mv	a1,s1
   10e08:	fb843503          	ld	a0,-72(s0)
   10e0c:	37b020ef          	jal	13986 <_fflush_r>
   10e10:	87aa                	mv	a5,a0
   10e12:	c399                	beqz	a5,10e18 <__swbuf_r+0x12e>
      return EOF;
   10e14:	57fd                	li	a5,-1
   10e16:	a011                	j	10e1a <__swbuf_r+0x130>
  return c;
   10e18:	87ce                	mv	a5,s3
}
   10e1a:	853e                	mv	a0,a5
   10e1c:	60a6                	ld	ra,72(sp)
   10e1e:	6406                	ld	s0,64(sp)
   10e20:	74e2                	ld	s1,56(sp)
   10e22:	7942                	ld	s2,48(sp)
   10e24:	79a2                	ld	s3,40(sp)
   10e26:	6161                	addi	sp,sp,80
   10e28:	8082                	ret

0000000000010e2a <__swbuf>:
   required for backward compatibility with applications built against
   earlier dynamically built newlib libraries. */
int
__swbuf (register int c,
       register FILE *fp)
{
   10e2a:	1141                	addi	sp,sp,-16
   10e2c:	e406                	sd	ra,8(sp)
   10e2e:	e022                	sd	s0,0(sp)
   10e30:	0800                	addi	s0,sp,16
   10e32:	872a                	mv	a4,a0
   10e34:	86ae                	mv	a3,a1
  return __swbuf_r (_REENT, c, fp);
   10e36:	00006797          	auipc	a5,0x6
   10e3a:	e9278793          	addi	a5,a5,-366 # 16cc8 <_impure_ptr>
   10e3e:	639c                	ld	a5,0(a5)
   10e40:	8636                	mv	a2,a3
   10e42:	85ba                	mv	a1,a4
   10e44:	853e                	mv	a0,a5
   10e46:	ea5ff0ef          	jal	10cea <__swbuf_r>
   10e4a:	87aa                	mv	a5,a0
}
   10e4c:	853e                	mv	a0,a5
   10e4e:	60a2                	ld	ra,8(sp)
   10e50:	6402                	ld	s0,0(sp)
   10e52:	0141                	addi	sp,sp,16
   10e54:	8082                	ret

0000000000010e56 <__swsetup_r>:
 */

int
__swsetup_r (struct _reent *ptr,
       register FILE * fp)
{
   10e56:	7139                	addi	sp,sp,-64
   10e58:	fc06                	sd	ra,56(sp)
   10e5a:	f822                	sd	s0,48(sp)
   10e5c:	f426                	sd	s1,40(sp)
   10e5e:	0080                	addi	s0,sp,64
   10e60:	fca43423          	sd	a0,-56(s0)
   10e64:	84ae                	mv	s1,a1
  /* Make sure stdio is set up.  */

  CHECK_INIT (_REENT, fp);
   10e66:	00006797          	auipc	a5,0x6
   10e6a:	e6278793          	addi	a5,a5,-414 # 16cc8 <_impure_ptr>
   10e6e:	639c                	ld	a5,0(a5)
   10e70:	fcf43c23          	sd	a5,-40(s0)
   10e74:	fd843783          	ld	a5,-40(s0)
   10e78:	cb89                	beqz	a5,10e8a <__swsetup_r+0x34>
   10e7a:	fd843783          	ld	a5,-40(s0)
   10e7e:	63bc                	ld	a5,64(a5)
   10e80:	e789                	bnez	a5,10e8a <__swsetup_r+0x34>
   10e82:	fd843503          	ld	a0,-40(s0)
   10e86:	93dff0ef          	jal	107c2 <__sinit>

  /*
   * If we are not writing, we had better be reading and writing.
   */

  if ((fp->_flags & __SWR) == 0)
   10e8a:	01049783          	lh	a5,16(s1)
   10e8e:	17c2                	slli	a5,a5,0x30
   10e90:	93c1                	srli	a5,a5,0x30
   10e92:	2781                	sext.w	a5,a5
   10e94:	8ba1                	andi	a5,a5,8
   10e96:	2781                	sext.w	a5,a5
   10e98:	ebc1                	bnez	a5,10f28 <__swsetup_r+0xd2>
    {
      if ((fp->_flags & __SRW) == 0)
   10e9a:	01049783          	lh	a5,16(s1)
   10e9e:	17c2                	slli	a5,a5,0x30
   10ea0:	93c1                	srli	a5,a5,0x30
   10ea2:	2781                	sext.w	a5,a5
   10ea4:	8bc1                	andi	a5,a5,16
   10ea6:	2781                	sext.w	a5,a5
   10ea8:	e38d                	bnez	a5,10eca <__swsetup_r+0x74>
        {
	  _REENT_ERRNO(ptr) = EBADF;
   10eaa:	fc843783          	ld	a5,-56(s0)
   10eae:	4725                	li	a4,9
   10eb0:	c398                	sw	a4,0(a5)
	  fp->_flags |= __SERR;
   10eb2:	01049783          	lh	a5,16(s1)
   10eb6:	0407e793          	ori	a5,a5,64
   10eba:	0107979b          	slliw	a5,a5,0x10
   10ebe:	4107d79b          	sraiw	a5,a5,0x10
   10ec2:	00f49823          	sh	a5,16(s1)
	  return EOF;
   10ec6:	57fd                	li	a5,-1
   10ec8:	a8ed                	j	10fc2 <__swsetup_r+0x16c>
        }
      if (fp->_flags & __SRD)
   10eca:	01049783          	lh	a5,16(s1)
   10ece:	17c2                	slli	a5,a5,0x30
   10ed0:	93c1                	srli	a5,a5,0x30
   10ed2:	2781                	sext.w	a5,a5
   10ed4:	8b91                	andi	a5,a5,4
   10ed6:	2781                	sext.w	a5,a5
   10ed8:	cf95                	beqz	a5,10f14 <__swsetup_r+0xbe>
	{
	  /* clobber any ungetc data */
	  if (HASUB (fp))
   10eda:	70bc                	ld	a5,96(s1)
   10edc:	cf91                	beqz	a5,10ef8 <__swsetup_r+0xa2>
	    FREEUB (ptr, fp);
   10ede:	70b8                	ld	a4,96(s1)
   10ee0:	07c48793          	addi	a5,s1,124
   10ee4:	00f70863          	beq	a4,a5,10ef4 <__swsetup_r+0x9e>
   10ee8:	70bc                	ld	a5,96(s1)
   10eea:	85be                	mv	a1,a5
   10eec:	fc843503          	ld	a0,-56(s0)
   10ef0:	017000ef          	jal	11706 <_free_r>
   10ef4:	0604b023          	sd	zero,96(s1)
	  fp->_flags &= ~(__SRD | __SEOF);
   10ef8:	01049783          	lh	a5,16(s1)
   10efc:	fdb7f793          	andi	a5,a5,-37
   10f00:	0107979b          	slliw	a5,a5,0x10
   10f04:	4107d79b          	sraiw	a5,a5,0x10
   10f08:	00f49823          	sh	a5,16(s1)
	  fp->_r = 0;
   10f0c:	0004a423          	sw	zero,8(s1)
	  fp->_p = fp->_bf._base;
   10f10:	6c9c                	ld	a5,24(s1)
   10f12:	e09c                	sd	a5,0(s1)
	}
      fp->_flags |= __SWR;
   10f14:	01049783          	lh	a5,16(s1)
   10f18:	0087e793          	ori	a5,a5,8
   10f1c:	0107979b          	slliw	a5,a5,0x10
   10f20:	4107d79b          	sraiw	a5,a5,0x10
   10f24:	00f49823          	sh	a5,16(s1)
  /*
   * Make a buffer if necessary, then set _w.
   * A string I/O file should not explicitly allocate a buffer
   * unless asprintf is being used.
   */
  if (fp->_bf._base == NULL
   10f28:	6c9c                	ld	a5,24(s1)
   10f2a:	eb85                	bnez	a5,10f5a <__swsetup_r+0x104>
        && (!(fp->_flags & __SSTR) || (fp->_flags & __SMBF)))
   10f2c:	01049783          	lh	a5,16(s1)
   10f30:	17c2                	slli	a5,a5,0x30
   10f32:	93c1                	srli	a5,a5,0x30
   10f34:	2781                	sext.w	a5,a5
   10f36:	2007f793          	andi	a5,a5,512
   10f3a:	2781                	sext.w	a5,a5
   10f3c:	cb91                	beqz	a5,10f50 <__swsetup_r+0xfa>
   10f3e:	01049783          	lh	a5,16(s1)
   10f42:	17c2                	slli	a5,a5,0x30
   10f44:	93c1                	srli	a5,a5,0x30
   10f46:	2781                	sext.w	a5,a5
   10f48:	0807f793          	andi	a5,a5,128
   10f4c:	2781                	sext.w	a5,a5
   10f4e:	c791                	beqz	a5,10f5a <__swsetup_r+0x104>
    __smakebuf_r (ptr, fp);
   10f50:	85a6                	mv	a1,s1
   10f52:	fc843503          	ld	a0,-56(s0)
   10f56:	2db020ef          	jal	13a30 <__smakebuf_r>

  if (fp->_flags & __SLBF)
   10f5a:	01049783          	lh	a5,16(s1)
   10f5e:	17c2                	slli	a5,a5,0x30
   10f60:	93c1                	srli	a5,a5,0x30
   10f62:	2781                	sext.w	a5,a5
   10f64:	8b85                	andi	a5,a5,1
   10f66:	2781                	sext.w	a5,a5
   10f68:	cb89                	beqz	a5,10f7a <__swsetup_r+0x124>
      /*
       * It is line buffered, so make _lbfsize be -_bufsize
       * for the putc() macro.  We will change _lbfsize back
       * to 0 whenever we turn off __SWR.
       */
      fp->_w = 0;
   10f6a:	0004a623          	sw	zero,12(s1)
      fp->_lbfsize = -fp->_bf._size;
   10f6e:	509c                	lw	a5,32(s1)
   10f70:	40f007bb          	negw	a5,a5
   10f74:	2781                	sext.w	a5,a5
   10f76:	d49c                	sw	a5,40(s1)
   10f78:	a829                	j	10f92 <__swsetup_r+0x13c>
    }
  else
    fp->_w = fp->_flags & __SNBF ? 0 : fp->_bf._size;
   10f7a:	01049783          	lh	a5,16(s1)
   10f7e:	17c2                	slli	a5,a5,0x30
   10f80:	93c1                	srli	a5,a5,0x30
   10f82:	2781                	sext.w	a5,a5
   10f84:	8b89                	andi	a5,a5,2
   10f86:	2781                	sext.w	a5,a5
   10f88:	e399                	bnez	a5,10f8e <__swsetup_r+0x138>
   10f8a:	509c                	lw	a5,32(s1)
   10f8c:	a011                	j	10f90 <__swsetup_r+0x13a>
   10f8e:	4781                	li	a5,0
   10f90:	c4dc                	sw	a5,12(s1)

  if (!fp->_bf._base && (fp->_flags & __SMBF))
   10f92:	6c9c                	ld	a5,24(s1)
   10f94:	e795                	bnez	a5,10fc0 <__swsetup_r+0x16a>
   10f96:	01049783          	lh	a5,16(s1)
   10f9a:	17c2                	slli	a5,a5,0x30
   10f9c:	93c1                	srli	a5,a5,0x30
   10f9e:	2781                	sext.w	a5,a5
   10fa0:	0807f793          	andi	a5,a5,128
   10fa4:	2781                	sext.w	a5,a5
   10fa6:	cf89                	beqz	a5,10fc0 <__swsetup_r+0x16a>
    {
      /* __smakebuf_r set errno, but not flag */
      fp->_flags |= __SERR;
   10fa8:	01049783          	lh	a5,16(s1)
   10fac:	0407e793          	ori	a5,a5,64
   10fb0:	0107979b          	slliw	a5,a5,0x10
   10fb4:	4107d79b          	sraiw	a5,a5,0x10
   10fb8:	00f49823          	sh	a5,16(s1)
      return EOF;
   10fbc:	57fd                	li	a5,-1
   10fbe:	a011                	j	10fc2 <__swsetup_r+0x16c>
    }
  return 0;
   10fc0:	4781                	li	a5,0
}
   10fc2:	853e                	mv	a0,a5
   10fc4:	70e2                	ld	ra,56(sp)
   10fc6:	7442                	ld	s0,48(sp)
   10fc8:	74a2                	ld	s1,40(sp)
   10fca:	6121                	addi	sp,sp,64
   10fcc:	8082                	ret

0000000000010fce <_close_r>:

int
_close_r (ptr, fd)
     struct _reent *ptr;
     int fd;
{
   10fce:	7179                	addi	sp,sp,-48
   10fd0:	f406                	sd	ra,40(sp)
   10fd2:	f022                	sd	s0,32(sp)
   10fd4:	1800                	addi	s0,sp,48
   10fd6:	fca43c23          	sd	a0,-40(s0)
   10fda:	87ae                	mv	a5,a1
   10fdc:	fcf42a23          	sw	a5,-44(s0)
  int ret;

  errno = 0;
   10fe0:	82818793          	addi	a5,gp,-2008 # 16cf0 <errno>
   10fe4:	0007a023          	sw	zero,0(a5)
  if ((ret = _close (fd)) == -1 && errno != 0)
   10fe8:	fd442783          	lw	a5,-44(s0)
   10fec:	853e                	mv	a0,a5
   10fee:	629040ef          	jal	15e16 <_close>
   10ff2:	87aa                	mv	a5,a0
   10ff4:	fef42623          	sw	a5,-20(s0)
   10ff8:	fec42783          	lw	a5,-20(s0)
   10ffc:	0007871b          	sext.w	a4,a5
   11000:	57fd                	li	a5,-1
   11002:	00f71c63          	bne	a4,a5,1101a <_close_r+0x4c>
   11006:	82818793          	addi	a5,gp,-2008 # 16cf0 <errno>
   1100a:	439c                	lw	a5,0(a5)
   1100c:	c799                	beqz	a5,1101a <_close_r+0x4c>
    _REENT_ERRNO(ptr) = errno;
   1100e:	82818793          	addi	a5,gp,-2008 # 16cf0 <errno>
   11012:	4398                	lw	a4,0(a5)
   11014:	fd843783          	ld	a5,-40(s0)
   11018:	c398                	sw	a4,0(a5)
  return ret;
   1101a:	fec42783          	lw	a5,-20(s0)
}
   1101e:	853e                	mv	a0,a5
   11020:	70a2                	ld	ra,40(sp)
   11022:	7402                	ld	s0,32(sp)
   11024:	6145                	addi	sp,sp,48
   11026:	8082                	ret

0000000000011028 <_reclaim_reent>:

#endif

void
_reclaim_reent (struct _reent *ptr)
{
   11028:	715d                	addi	sp,sp,-80
   1102a:	e486                	sd	ra,72(sp)
   1102c:	e0a2                	sd	s0,64(sp)
   1102e:	0880                	addi	s0,sp,80
   11030:	faa43c23          	sd	a0,-72(s0)
#ifndef _REENT_THREAD_LOCAL
  if (ptr != _impure_ptr)
   11034:	00006797          	auipc	a5,0x6
   11038:	c9478793          	addi	a5,a5,-876 # 16cc8 <_impure_ptr>
   1103c:	639c                	ld	a5,0(a5)
   1103e:	fb843703          	ld	a4,-72(s0)
   11042:	1af70763          	beq	a4,a5,111f0 <_reclaim_reent+0x1c8>
#endif
    {
      /* used by mprec routines. */
#ifdef _REENT_SMALL
      if (ptr->_mp)	/* don't bother allocating it! */
   11046:	fb843783          	ld	a5,-72(s0)
   1104a:	7f9c                	ld	a5,56(a5)
   1104c:	cbe1                	beqz	a5,1111c <_reclaim_reent+0xf4>
      {
#endif
      if (_REENT_MP_FREELIST(ptr))
   1104e:	fb843783          	ld	a5,-72(s0)
   11052:	7f9c                	ld	a5,56(a5)
   11054:	6f9c                	ld	a5,24(a5)
   11056:	c7bd                	beqz	a5,110c4 <_reclaim_reent+0x9c>
	{
	  int i;
	  for (i = 0; i < _Kmax; i++) 
   11058:	fe042623          	sw	zero,-20(s0)
   1105c:	a0a1                	j	110a4 <_reclaim_reent+0x7c>
	    {
	      struct _Bigint *thisone, *nextone;
	
	      nextone = _REENT_MP_FREELIST(ptr)[i];
   1105e:	fb843783          	ld	a5,-72(s0)
   11062:	7f9c                	ld	a5,56(a5)
   11064:	6f98                	ld	a4,24(a5)
   11066:	fec42783          	lw	a5,-20(s0)
   1106a:	078e                	slli	a5,a5,0x3
   1106c:	97ba                	add	a5,a5,a4
   1106e:	639c                	ld	a5,0(a5)
   11070:	fef43023          	sd	a5,-32(s0)
	      while (nextone)
   11074:	a005                	j	11094 <_reclaim_reent+0x6c>
		{
		  thisone = nextone;
   11076:	fe043783          	ld	a5,-32(s0)
   1107a:	fcf43823          	sd	a5,-48(s0)
		  nextone = nextone->_next;
   1107e:	fe043783          	ld	a5,-32(s0)
   11082:	639c                	ld	a5,0(a5)
   11084:	fef43023          	sd	a5,-32(s0)
		  _free_r (ptr, thisone);
   11088:	fd043583          	ld	a1,-48(s0)
   1108c:	fb843503          	ld	a0,-72(s0)
   11090:	676000ef          	jal	11706 <_free_r>
	      while (nextone)
   11094:	fe043783          	ld	a5,-32(s0)
   11098:	fff9                	bnez	a5,11076 <_reclaim_reent+0x4e>
	  for (i = 0; i < _Kmax; i++) 
   1109a:	fec42783          	lw	a5,-20(s0)
   1109e:	2785                	addiw	a5,a5,1
   110a0:	fef42623          	sw	a5,-20(s0)
   110a4:	fec42783          	lw	a5,-20(s0)
   110a8:	873e                	mv	a4,a5
   110aa:	03f00793          	li	a5,63
   110ae:	fae7f8e3          	bgeu	a5,a4,1105e <_reclaim_reent+0x36>
		}
	    }    

	  _free_r (ptr, _REENT_MP_FREELIST(ptr));
   110b2:	fb843783          	ld	a5,-72(s0)
   110b6:	7f9c                	ld	a5,56(a5)
   110b8:	6f9c                	ld	a5,24(a5)
   110ba:	85be                	mv	a1,a5
   110bc:	fb843503          	ld	a0,-72(s0)
   110c0:	646000ef          	jal	11706 <_free_r>
	}
      if (_REENT_MP_RESULT(ptr))
   110c4:	fb843783          	ld	a5,-72(s0)
   110c8:	7f9c                	ld	a5,56(a5)
   110ca:	639c                	ld	a5,0(a5)
   110cc:	cb91                	beqz	a5,110e0 <_reclaim_reent+0xb8>
	_free_r (ptr, _REENT_MP_RESULT(ptr));
   110ce:	fb843783          	ld	a5,-72(s0)
   110d2:	7f9c                	ld	a5,56(a5)
   110d4:	639c                	ld	a5,0(a5)
   110d6:	85be                	mv	a1,a5
   110d8:	fb843503          	ld	a0,-72(s0)
   110dc:	62a000ef          	jal	11706 <_free_r>
      if (_REENT_MP_P5S(ptr))
   110e0:	fb843783          	ld	a5,-72(s0)
   110e4:	7f9c                	ld	a5,56(a5)
   110e6:	6b9c                	ld	a5,16(a5)
   110e8:	cb95                	beqz	a5,1111c <_reclaim_reent+0xf4>
        {
          struct _Bigint *thisone, *nextone;
          nextone = _REENT_MP_P5S(ptr);
   110ea:	fb843783          	ld	a5,-72(s0)
   110ee:	7f9c                	ld	a5,56(a5)
   110f0:	6b9c                	ld	a5,16(a5)
   110f2:	fcf43c23          	sd	a5,-40(s0)
          while (nextone)
   110f6:	a005                	j	11116 <_reclaim_reent+0xee>
           {
             thisone = nextone;
   110f8:	fd843783          	ld	a5,-40(s0)
   110fc:	fcf43423          	sd	a5,-56(s0)
             nextone = nextone->_next;
   11100:	fd843783          	ld	a5,-40(s0)
   11104:	639c                	ld	a5,0(a5)
   11106:	fcf43c23          	sd	a5,-40(s0)
             _free_r (ptr, thisone);
   1110a:	fc843583          	ld	a1,-56(s0)
   1110e:	fb843503          	ld	a0,-72(s0)
   11112:	5f4000ef          	jal	11706 <_free_r>
          while (nextone)
   11116:	fd843783          	ld	a5,-40(s0)
   1111a:	fff9                	bnez	a5,110f8 <_reclaim_reent+0xd0>
#ifdef _REENT_SMALL
      }
#endif

#ifdef _REENT_SMALL
      if (_REENT_EMERGENCY(ptr))
   1111c:	fb843783          	ld	a5,-72(s0)
   11120:	779c                	ld	a5,40(a5)
   11122:	cb89                	beqz	a5,11134 <_reclaim_reent+0x10c>
	_free_r (ptr, _REENT_EMERGENCY(ptr));
   11124:	fb843783          	ld	a5,-72(s0)
   11128:	779c                	ld	a5,40(a5)
   1112a:	85be                	mv	a1,a5
   1112c:	fb843503          	ld	a0,-72(s0)
   11130:	5d6000ef          	jal	11706 <_free_r>
      if (ptr->_mp)
   11134:	fb843783          	ld	a5,-72(s0)
   11138:	7f9c                	ld	a5,56(a5)
   1113a:	cb89                	beqz	a5,1114c <_reclaim_reent+0x124>
	_free_r (ptr, ptr->_mp);
   1113c:	fb843783          	ld	a5,-72(s0)
   11140:	7f9c                	ld	a5,56(a5)
   11142:	85be                	mv	a1,a5
   11144:	fb843503          	ld	a0,-72(s0)
   11148:	5be000ef          	jal	11706 <_free_r>
      if (ptr->_r48)
   1114c:	fb843783          	ld	a5,-72(s0)
   11150:	6fbc                	ld	a5,88(a5)
   11152:	cb89                	beqz	a5,11164 <_reclaim_reent+0x13c>
	_free_r (ptr, ptr->_r48);
   11154:	fb843783          	ld	a5,-72(s0)
   11158:	6fbc                	ld	a5,88(a5)
   1115a:	85be                	mv	a1,a5
   1115c:	fb843503          	ld	a0,-72(s0)
   11160:	5a6000ef          	jal	11706 <_free_r>
      if (ptr->_localtime_buf)
   11164:	fb843783          	ld	a5,-72(s0)
   11168:	73bc                	ld	a5,96(a5)
   1116a:	cb89                	beqz	a5,1117c <_reclaim_reent+0x154>
	_free_r (ptr, ptr->_localtime_buf);
   1116c:	fb843783          	ld	a5,-72(s0)
   11170:	73bc                	ld	a5,96(a5)
   11172:	85be                	mv	a1,a5
   11174:	fb843503          	ld	a0,-72(s0)
   11178:	58e000ef          	jal	11706 <_free_r>
      if (ptr->_asctime_buf)
   1117c:	fb843783          	ld	a5,-72(s0)
   11180:	77bc                	ld	a5,104(a5)
   11182:	cb89                	beqz	a5,11194 <_reclaim_reent+0x16c>
	_free_r (ptr, ptr->_asctime_buf);
   11184:	fb843783          	ld	a5,-72(s0)
   11188:	77bc                	ld	a5,104(a5)
   1118a:	85be                	mv	a1,a5
   1118c:	fb843503          	ld	a0,-72(s0)
   11190:	576000ef          	jal	11706 <_free_r>
	  if (ptr->_signal_buf)
   11194:	fb843783          	ld	a5,-72(s0)
   11198:	67dc                	ld	a5,136(a5)
   1119a:	cb89                	beqz	a5,111ac <_reclaim_reent+0x184>
	_free_r (ptr, ptr->_signal_buf);
   1119c:	fb843783          	ld	a5,-72(s0)
   111a0:	67dc                	ld	a5,136(a5)
   111a2:	85be                	mv	a1,a5
   111a4:	fb843503          	ld	a0,-72(s0)
   111a8:	55e000ef          	jal	11706 <_free_r>
	  if (ptr->_misc)
   111ac:	fb843783          	ld	a5,-72(s0)
   111b0:	63dc                	ld	a5,128(a5)
   111b2:	cb89                	beqz	a5,111c4 <_reclaim_reent+0x19c>
	_free_r (ptr, ptr->_misc);
   111b4:	fb843783          	ld	a5,-72(s0)
   111b8:	63dc                	ld	a5,128(a5)
   111ba:	85be                	mv	a1,a5
   111bc:	fb843503          	ld	a0,-72(s0)
   111c0:	546000ef          	jal	11706 <_free_r>
#endif

      if (_REENT_CVTBUF(ptr))
   111c4:	fb843783          	ld	a5,-72(s0)
   111c8:	6bbc                	ld	a5,80(a5)
   111ca:	cb89                	beqz	a5,111dc <_reclaim_reent+0x1b4>
	_free_r (ptr, _REENT_CVTBUF(ptr));
   111cc:	fb843783          	ld	a5,-72(s0)
   111d0:	6bbc                	ld	a5,80(a5)
   111d2:	85be                	mv	a1,a5
   111d4:	fb843503          	ld	a0,-72(s0)
   111d8:	52e000ef          	jal	11706 <_free_r>
	   do it safely considering that a signal may be delivered immediately
	   after the free?
	  if (_REENT_SIG_FUNC(ptr))
	_free_r (ptr, _REENT_SIG_FUNC(ptr));*/

      if (_REENT_CLEANUP(ptr))
   111dc:	fb843783          	ld	a5,-72(s0)
   111e0:	63bc                	ld	a5,64(a5)
   111e2:	c799                	beqz	a5,111f0 <_reclaim_reent+0x1c8>
	{
	  /* cleanup won't reclaim memory 'coz usually it's run
	     before the program exits, and who wants to wait for that? */
	  _REENT_CLEANUP(ptr) (ptr);
   111e4:	fb843783          	ld	a5,-72(s0)
   111e8:	63bc                	ld	a5,64(a5)
   111ea:	fb843503          	ld	a0,-72(s0)
   111ee:	9782                	jalr	a5
	}

      /* Malloc memory not reclaimed; no good way to return memory anyway. */

    }
}
   111f0:	0001                	nop
   111f2:	60a6                	ld	ra,72(sp)
   111f4:	6406                	ld	s0,64(sp)
   111f6:	6161                	addi	sp,sp,80
   111f8:	8082                	ret

00000000000111fa <_lseek_r>:
_off_t
_lseek_r (struct _reent *ptr,
     int fd,
     _off_t pos,
     int whence)
{
   111fa:	7139                	addi	sp,sp,-64
   111fc:	fc06                	sd	ra,56(sp)
   111fe:	f822                	sd	s0,48(sp)
   11200:	0080                	addi	s0,sp,64
   11202:	fca43c23          	sd	a0,-40(s0)
   11206:	87ae                	mv	a5,a1
   11208:	fcc43423          	sd	a2,-56(s0)
   1120c:	8736                	mv	a4,a3
   1120e:	fcf42a23          	sw	a5,-44(s0)
   11212:	87ba                	mv	a5,a4
   11214:	fcf42823          	sw	a5,-48(s0)
  _off_t ret;

  errno = 0;
   11218:	82818793          	addi	a5,gp,-2008 # 16cf0 <errno>
   1121c:	0007a023          	sw	zero,0(a5)
  if ((ret = _lseek (fd, pos, whence)) == (_off_t) -1 && errno != 0)
   11220:	fd042703          	lw	a4,-48(s0)
   11224:	fd442783          	lw	a5,-44(s0)
   11228:	863a                	mv	a2,a4
   1122a:	fc843583          	ld	a1,-56(s0)
   1122e:	853e                	mv	a0,a5
   11230:	4c5040ef          	jal	15ef4 <_lseek>
   11234:	fea43423          	sd	a0,-24(s0)
   11238:	fe843703          	ld	a4,-24(s0)
   1123c:	57fd                	li	a5,-1
   1123e:	00f71c63          	bne	a4,a5,11256 <_lseek_r+0x5c>
   11242:	82818793          	addi	a5,gp,-2008 # 16cf0 <errno>
   11246:	439c                	lw	a5,0(a5)
   11248:	c799                	beqz	a5,11256 <_lseek_r+0x5c>
    _REENT_ERRNO(ptr) = errno;
   1124a:	82818793          	addi	a5,gp,-2008 # 16cf0 <errno>
   1124e:	4398                	lw	a4,0(a5)
   11250:	fd843783          	ld	a5,-40(s0)
   11254:	c398                	sw	a4,0(a5)
  return ret;
   11256:	fe843783          	ld	a5,-24(s0)
}
   1125a:	853e                	mv	a0,a5
   1125c:	70e2                	ld	ra,56(sp)
   1125e:	7442                	ld	s0,48(sp)
   11260:	6121                	addi	sp,sp,64
   11262:	8082                	ret

0000000000011264 <_read_r>:
_ssize_t
_read_r (struct _reent *ptr,
     int fd,
     void *buf,
     size_t cnt)
{
   11264:	7139                	addi	sp,sp,-64
   11266:	fc06                	sd	ra,56(sp)
   11268:	f822                	sd	s0,48(sp)
   1126a:	0080                	addi	s0,sp,64
   1126c:	fca43c23          	sd	a0,-40(s0)
   11270:	87ae                	mv	a5,a1
   11272:	fcc43423          	sd	a2,-56(s0)
   11276:	fcd43023          	sd	a3,-64(s0)
   1127a:	fcf42a23          	sw	a5,-44(s0)
  _ssize_t ret;

  errno = 0;
   1127e:	82818793          	addi	a5,gp,-2008 # 16cf0 <errno>
   11282:	0007a023          	sw	zero,0(a5)
  if ((ret = (_ssize_t)_read (fd, buf, cnt)) == -1 && errno != 0)
   11286:	fd442783          	lw	a5,-44(s0)
   1128a:	fc043603          	ld	a2,-64(s0)
   1128e:	fc843583          	ld	a1,-56(s0)
   11292:	853e                	mv	a0,a5
   11294:	4b5040ef          	jal	15f48 <_read>
   11298:	fea43423          	sd	a0,-24(s0)
   1129c:	fe843703          	ld	a4,-24(s0)
   112a0:	57fd                	li	a5,-1
   112a2:	00f71c63          	bne	a4,a5,112ba <_read_r+0x56>
   112a6:	82818793          	addi	a5,gp,-2008 # 16cf0 <errno>
   112aa:	439c                	lw	a5,0(a5)
   112ac:	c799                	beqz	a5,112ba <_read_r+0x56>
    _REENT_ERRNO(ptr) = errno;
   112ae:	82818793          	addi	a5,gp,-2008 # 16cf0 <errno>
   112b2:	4398                	lw	a4,0(a5)
   112b4:	fd843783          	ld	a5,-40(s0)
   112b8:	c398                	sw	a4,0(a5)
  return ret;
   112ba:	fe843783          	ld	a5,-24(s0)
}
   112be:	853e                	mv	a0,a5
   112c0:	70e2                	ld	ra,56(sp)
   112c2:	7442                	ld	s0,48(sp)
   112c4:	6121                	addi	sp,sp,64
   112c6:	8082                	ret

00000000000112c8 <_write_r>:
_ssize_t
_write_r (struct _reent *ptr,
     int fd,
     const void *buf,
     size_t cnt)
{
   112c8:	7139                	addi	sp,sp,-64
   112ca:	fc06                	sd	ra,56(sp)
   112cc:	f822                	sd	s0,48(sp)
   112ce:	0080                	addi	s0,sp,64
   112d0:	fca43c23          	sd	a0,-40(s0)
   112d4:	87ae                	mv	a5,a1
   112d6:	fcc43423          	sd	a2,-56(s0)
   112da:	fcd43023          	sd	a3,-64(s0)
   112de:	fcf42a23          	sw	a5,-44(s0)
  _ssize_t ret;

  errno = 0;
   112e2:	82818793          	addi	a5,gp,-2008 # 16cf0 <errno>
   112e6:	0007a023          	sw	zero,0(a5)
  if ((ret = (_ssize_t)_write (fd, buf, cnt)) == -1 && errno != 0)
   112ea:	fd442783          	lw	a5,-44(s0)
   112ee:	fc043603          	ld	a2,-64(s0)
   112f2:	fc843583          	ld	a1,-56(s0)
   112f6:	853e                	mv	a0,a5
   112f8:	2b9040ef          	jal	15db0 <_write>
   112fc:	fea43423          	sd	a0,-24(s0)
   11300:	fe843703          	ld	a4,-24(s0)
   11304:	57fd                	li	a5,-1
   11306:	00f71c63          	bne	a4,a5,1131e <_write_r+0x56>
   1130a:	82818793          	addi	a5,gp,-2008 # 16cf0 <errno>
   1130e:	439c                	lw	a5,0(a5)
   11310:	c799                	beqz	a5,1131e <_write_r+0x56>
    _REENT_ERRNO(ptr) = errno;
   11312:	82818793          	addi	a5,gp,-2008 # 16cf0 <errno>
   11316:	4398                	lw	a4,0(a5)
   11318:	fd843783          	ld	a5,-40(s0)
   1131c:	c398                	sw	a4,0(a5)
  return ret;
   1131e:	fe843783          	ld	a5,-24(s0)
}
   11322:	853e                	mv	a0,a5
   11324:	70e2                	ld	ra,56(sp)
   11326:	7442                	ld	s0,48(sp)
   11328:	6121                	addi	sp,sp,64
   1132a:	8082                	ret

000000000001132c <__libc_init_array>:
#endif

/* Iterate over all the init routines.  */
void
__libc_init_array (void)
{
   1132c:	1101                	addi	sp,sp,-32
   1132e:	ec06                	sd	ra,24(sp)
   11330:	e822                	sd	s0,16(sp)
   11332:	1000                	addi	s0,sp,32
  size_t count;
  size_t i;

  count = __preinit_array_end - __preinit_array_start;
   11334:	fffff717          	auipc	a4,0xfffff
   11338:	ccc70713          	addi	a4,a4,-820 # 10000 <__fini_array_end>
   1133c:	fffff797          	auipc	a5,0xfffff
   11340:	cc478793          	addi	a5,a5,-828 # 10000 <__fini_array_end>
   11344:	40f707b3          	sub	a5,a4,a5
   11348:	878d                	srai	a5,a5,0x3
   1134a:	fef43023          	sd	a5,-32(s0)
  for (i = 0; i < count; i++)
   1134e:	fe043423          	sd	zero,-24(s0)
   11352:	a005                	j	11372 <__libc_init_array+0x46>
    __preinit_array_start[i] ();
   11354:	fffff717          	auipc	a4,0xfffff
   11358:	cac70713          	addi	a4,a4,-852 # 10000 <__fini_array_end>
   1135c:	fe843783          	ld	a5,-24(s0)
   11360:	078e                	slli	a5,a5,0x3
   11362:	97ba                	add	a5,a5,a4
   11364:	639c                	ld	a5,0(a5)
   11366:	9782                	jalr	a5
  for (i = 0; i < count; i++)
   11368:	fe843783          	ld	a5,-24(s0)
   1136c:	0785                	addi	a5,a5,1
   1136e:	fef43423          	sd	a5,-24(s0)
   11372:	fe843703          	ld	a4,-24(s0)
   11376:	fe043783          	ld	a5,-32(s0)
   1137a:	fcf76de3          	bltu	a4,a5,11354 <__libc_init_array+0x28>

#ifdef _HAVE_INIT_FINI
  _init ();
#endif

  count = __init_array_end - __init_array_start;
   1137e:	fffff717          	auipc	a4,0xfffff
   11382:	c8270713          	addi	a4,a4,-894 # 10000 <__fini_array_end>
   11386:	fffff797          	auipc	a5,0xfffff
   1138a:	c7a78793          	addi	a5,a5,-902 # 10000 <__fini_array_end>
   1138e:	40f707b3          	sub	a5,a4,a5
   11392:	878d                	srai	a5,a5,0x3
   11394:	fef43023          	sd	a5,-32(s0)
  for (i = 0; i < count; i++)
   11398:	fe043423          	sd	zero,-24(s0)
   1139c:	a005                	j	113bc <__libc_init_array+0x90>
    __init_array_start[i] ();
   1139e:	fffff717          	auipc	a4,0xfffff
   113a2:	c6270713          	addi	a4,a4,-926 # 10000 <__fini_array_end>
   113a6:	fe843783          	ld	a5,-24(s0)
   113aa:	078e                	slli	a5,a5,0x3
   113ac:	97ba                	add	a5,a5,a4
   113ae:	639c                	ld	a5,0(a5)
   113b0:	9782                	jalr	a5
  for (i = 0; i < count; i++)
   113b2:	fe843783          	ld	a5,-24(s0)
   113b6:	0785                	addi	a5,a5,1
   113b8:	fef43423          	sd	a5,-24(s0)
   113bc:	fe843703          	ld	a4,-24(s0)
   113c0:	fe043783          	ld	a5,-32(s0)
   113c4:	fcf76de3          	bltu	a4,a5,1139e <__libc_init_array+0x72>
}
   113c8:	0001                	nop
   113ca:	0001                	nop
   113cc:	60e2                	ld	ra,24(sp)
   113ce:	6442                	ld	s0,16(sp)
   113d0:	6105                	addi	sp,sp,32
   113d2:	8082                	ret

00000000000113d4 <__libc_fini_array>:
#endif

/* Run all the cleanup routines.  */
void
__libc_fini_array (void)
{
   113d4:	1101                	addi	sp,sp,-32
   113d6:	ec06                	sd	ra,24(sp)
   113d8:	e822                	sd	s0,16(sp)
   113da:	1000                	addi	s0,sp,32
  size_t count;
  size_t i;
  
  count = __fini_array_end - __fini_array_start;
   113dc:	fffff717          	auipc	a4,0xfffff
   113e0:	c2470713          	addi	a4,a4,-988 # 10000 <__fini_array_end>
   113e4:	fffff797          	auipc	a5,0xfffff
   113e8:	c1c78793          	addi	a5,a5,-996 # 10000 <__fini_array_end>
   113ec:	40f707b3          	sub	a5,a4,a5
   113f0:	878d                	srai	a5,a5,0x3
   113f2:	fef43023          	sd	a5,-32(s0)
  for (i = count; i > 0; i--)
   113f6:	fe043783          	ld	a5,-32(s0)
   113fa:	fef43423          	sd	a5,-24(s0)
   113fe:	a00d                	j	11420 <__libc_fini_array+0x4c>
    __fini_array_start[i-1] ();
   11400:	fe843783          	ld	a5,-24(s0)
   11404:	17fd                	addi	a5,a5,-1
   11406:	fffff717          	auipc	a4,0xfffff
   1140a:	bfa70713          	addi	a4,a4,-1030 # 10000 <__fini_array_end>
   1140e:	078e                	slli	a5,a5,0x3
   11410:	97ba                	add	a5,a5,a4
   11412:	639c                	ld	a5,0(a5)
   11414:	9782                	jalr	a5
  for (i = count; i > 0; i--)
   11416:	fe843783          	ld	a5,-24(s0)
   1141a:	17fd                	addi	a5,a5,-1
   1141c:	fef43423          	sd	a5,-24(s0)
   11420:	fe843783          	ld	a5,-24(s0)
   11424:	fff1                	bnez	a5,11400 <__libc_fini_array+0x2c>

#ifdef _HAVE_INIT_FINI
  _fini ();
#endif
}
   11426:	0001                	nop
   11428:	0001                	nop
   1142a:	60e2                	ld	ra,24(sp)
   1142c:	6442                	ld	s0,16(sp)
   1142e:	6105                	addi	sp,sp,32
   11430:	8082                	ret

0000000000011432 <memset>:

2:
  ret

#else
  li t1, 15
   11432:	433d                	li	t1,15
  move a4, a0
   11434:	872a                	mv	a4,a0
  bleu a2, t1, .Ltiny
   11436:	02c37163          	bgeu	t1,a2,11458 <memset+0x26>
  and a5, a4, 15
   1143a:	00f77793          	andi	a5,a4,15
  bnez a5, .Lmisaligned
   1143e:	e3c1                	bnez	a5,114be <memset+0x8c>

.Laligned:
  bnez a1, .Lwordify
   11440:	e1bd                	bnez	a1,114a6 <memset+0x74>

.Lwordified:
  and a3, a2, ~15
   11442:	ff067693          	andi	a3,a2,-16
  and a2, a2, 15
   11446:	8a3d                	andi	a2,a2,15
  add a3, a3, a4
   11448:	96ba                	add	a3,a3,a4

#if __riscv_xlen == 64
1:sd a1, 0(a4)
   1144a:	e30c                	sd	a1,0(a4)
  sd a1, 8(a4)
   1144c:	e70c                	sd	a1,8(a4)
1:sw a1, 0(a4)
  sw a1, 4(a4)
  sw a1, 8(a4)
  sw a1, 12(a4)
#endif
  add a4, a4, 16
   1144e:	0741                	addi	a4,a4,16
  bltu a4, a3, 1b
   11450:	fed76de3          	bltu	a4,a3,1144a <memset+0x18>

  bnez a2, .Ltiny
   11454:	e211                	bnez	a2,11458 <memset+0x26>
  ret
   11456:	8082                	ret

.Ltiny:
  sub a3, t1, a2
   11458:	40c306b3          	sub	a3,t1,a2
  sll a3, a3, 2
   1145c:	068a                	slli	a3,a3,0x2
1:auipc t0, %pcrel_hi(.Ltable)
   1145e:	00000297          	auipc	t0,0x0
  add a3, a3, t0
   11462:	9696                	add	a3,a3,t0
.option push
.option norvc
.Ltable_misaligned:
  jr a3, %pcrel_lo(1b)
   11464:	00a68067          	jr	10(a3)
.Ltable:
  sb a1,14(a4)
   11468:	00b70723          	sb	a1,14(a4)
  sb a1,13(a4)
   1146c:	00b706a3          	sb	a1,13(a4)
  sb a1,12(a4)
   11470:	00b70623          	sb	a1,12(a4)
  sb a1,11(a4)
   11474:	00b705a3          	sb	a1,11(a4)
  sb a1,10(a4)
   11478:	00b70523          	sb	a1,10(a4)
  sb a1, 9(a4)
   1147c:	00b704a3          	sb	a1,9(a4)
  sb a1, 8(a4)
   11480:	00b70423          	sb	a1,8(a4)
  sb a1, 7(a4)
   11484:	00b703a3          	sb	a1,7(a4)
  sb a1, 6(a4)
   11488:	00b70323          	sb	a1,6(a4)
  sb a1, 5(a4)
   1148c:	00b702a3          	sb	a1,5(a4)
  sb a1, 4(a4)
   11490:	00b70223          	sb	a1,4(a4)
  sb a1, 3(a4)
   11494:	00b701a3          	sb	a1,3(a4)
  sb a1, 2(a4)
   11498:	00b70123          	sb	a1,2(a4)
  sb a1, 1(a4)
   1149c:	00b700a3          	sb	a1,1(a4)
  sb a1, 0(a4)
   114a0:	00b70023          	sb	a1,0(a4)
.option pop
  ret
   114a4:	8082                	ret

.Lwordify:
  and a1, a1, 0xFF
   114a6:	0ff5f593          	zext.b	a1,a1
  sll a3, a1, 8
   114aa:	00859693          	slli	a3,a1,0x8
  or  a1, a1, a3
   114ae:	8dd5                	or	a1,a1,a3
  sll a3, a1, 16
   114b0:	01059693          	slli	a3,a1,0x10
  or  a1, a1, a3
   114b4:	8dd5                	or	a1,a1,a3
#if __riscv_xlen == 64
  sll a3, a1, 32
   114b6:	02059693          	slli	a3,a1,0x20
  or  a1, a1, a3
   114ba:	8dd5                	or	a1,a1,a3
#endif
  j .Lwordified
   114bc:	b759                	j	11442 <memset+0x10>

.Lmisaligned:
  sll a3, a5, 2
   114be:	00279693          	slli	a3,a5,0x2
1:auipc t0, %pcrel_hi(.Ltable_misaligned)
   114c2:	00000297          	auipc	t0,0x0
  add a3, a3, t0
   114c6:	9696                	add	a3,a3,t0
  mv t0, ra
   114c8:	8286                	mv	t0,ra
  jalr a3, %pcrel_lo(1b)
   114ca:	fa2680e7          	jalr	-94(a3)
  mv ra, t0
   114ce:	8096                	mv	ra,t0

  add a5, a5, -16
   114d0:	17c1                	addi	a5,a5,-16
  sub a4, a4, a5
   114d2:	8f1d                	sub	a4,a4,a5
  add a2, a2, a5
   114d4:	963e                	add	a2,a2,a5
  bleu a2, t1, .Ltiny
   114d6:	f8c371e3          	bgeu	t1,a2,11458 <memset+0x26>
  j .Laligned
   114da:	b79d                	j	11440 <memset+0xe>

00000000000114dc <__register_exitproc>:
int
__register_exitproc (int type,
	void (*fn) (void),
	void *arg,
	void *d)
{
   114dc:	7139                	addi	sp,sp,-64
   114de:	fc22                	sd	s0,56(sp)
   114e0:	f826                	sd	s1,48(sp)
   114e2:	0080                	addi	s0,sp,64
   114e4:	87aa                	mv	a5,a0
   114e6:	fcb43823          	sd	a1,-48(s0)
   114ea:	fcc43423          	sd	a2,-56(s0)
   114ee:	fcd43023          	sd	a3,-64(s0)
   114f2:	fcf42e23          	sw	a5,-36(s0)

#ifndef __SINGLE_THREAD__
  __lock_acquire_recursive(__atexit_recursive_mutex);
#endif

  p = __atexit;
   114f6:	83018793          	addi	a5,gp,-2000 # 16cf8 <__atexit>
   114fa:	6384                	ld	s1,0(a5)
  if (p == NULL)
   114fc:	ec91                	bnez	s1,11518 <__register_exitproc+0x3c>
    {
      __atexit = p = &__atexit0;
   114fe:	a6818493          	addi	s1,gp,-1432 # 16f30 <__atexit0>
   11502:	83018793          	addi	a5,gp,-2000 # 16cf8 <__atexit>
   11506:	e384                	sd	s1,0(a5)
#ifdef _REENT_SMALL
      extern struct _on_exit_args * const __on_exit_args _ATTRIBUTE ((weak));
      if (&__on_exit_args != NULL)
   11508:	00000793          	li	a5,0
   1150c:	c791                	beqz	a5,11518 <__register_exitproc+0x3c>
	p->_on_exit_args_ptr = __on_exit_args;
   1150e:	00000793          	li	a5,0
   11512:	639c                	ld	a5,0(a5)
   11514:	10f4b823          	sd	a5,272(s1)
#endif	/* def _REENT_SMALL */
    }
  if (p->_ind >= _ATEXIT_SIZE)
   11518:	449c                	lw	a5,8(s1)
   1151a:	873e                	mv	a4,a5
   1151c:	47fd                	li	a5,31
   1151e:	00e7d463          	bge	a5,a4,11526 <__register_exitproc+0x4a>
    {
#if !defined (_ATEXIT_DYNAMIC_ALLOC) || !defined (MALLOC_PROVIDED)
#ifndef __SINGLE_THREAD__
      __lock_release_recursive(__atexit_recursive_mutex);
#endif
      return -1;
   11522:	57fd                	li	a5,-1
   11524:	a07d                	j	115d2 <__register_exitproc+0xf6>
      p->_on_exit_args_ptr = NULL;
#endif
#endif
    }

  if (type != __et_atexit)
   11526:	fdc42783          	lw	a5,-36(s0)
   1152a:	2781                	sext.w	a5,a5
   1152c:	c7d9                	beqz	a5,115ba <__register_exitproc+0xde>
    {
#ifdef _REENT_SMALL
      args = p->_on_exit_args_ptr;
   1152e:	1104b783          	ld	a5,272(s1)
   11532:	fef43423          	sd	a5,-24(s0)
      if (args == NULL)
   11536:	fe843783          	ld	a5,-24(s0)
   1153a:	e399                	bnez	a5,11540 <__register_exitproc+0x64>
	{
#ifndef _ATEXIT_DYNAMIC_ALLOC
#ifndef __SINGLE_THREAD__
	  __lock_release_recursive(__atexit_recursive_mutex);
#endif
	  return -1;
   1153c:	57fd                	li	a5,-1
   1153e:	a851                	j	115d2 <__register_exitproc+0xf6>
#endif
	}
#else
      args = &p->_on_exit_args;
#endif
      args->_fnargs[p->_ind] = arg;
   11540:	449c                	lw	a5,8(s1)
   11542:	fe843703          	ld	a4,-24(s0)
   11546:	078e                	slli	a5,a5,0x3
   11548:	97ba                	add	a5,a5,a4
   1154a:	fc843703          	ld	a4,-56(s0)
   1154e:	e398                	sd	a4,0(a5)
      args->_fntypes |= (1 << p->_ind);
   11550:	fe843783          	ld	a5,-24(s0)
   11554:	2007a683          	lw	a3,512(a5)
   11558:	449c                	lw	a5,8(s1)
   1155a:	4705                	li	a4,1
   1155c:	00f717bb          	sllw	a5,a4,a5
   11560:	2781                	sext.w	a5,a5
   11562:	2781                	sext.w	a5,a5
   11564:	8736                	mv	a4,a3
   11566:	8fd9                	or	a5,a5,a4
   11568:	0007871b          	sext.w	a4,a5
   1156c:	fe843783          	ld	a5,-24(s0)
   11570:	20e7a023          	sw	a4,512(a5)
      args->_dso_handle[p->_ind] = d;
   11574:	449c                	lw	a5,8(s1)
   11576:	fe843703          	ld	a4,-24(s0)
   1157a:	02078793          	addi	a5,a5,32
   1157e:	078e                	slli	a5,a5,0x3
   11580:	97ba                	add	a5,a5,a4
   11582:	fc043703          	ld	a4,-64(s0)
   11586:	e398                	sd	a4,0(a5)
      if (type == __et_cxa)
   11588:	fdc42783          	lw	a5,-36(s0)
   1158c:	0007871b          	sext.w	a4,a5
   11590:	4789                	li	a5,2
   11592:	02f71463          	bne	a4,a5,115ba <__register_exitproc+0xde>
	args->_is_cxa |= (1 << p->_ind);
   11596:	fe843783          	ld	a5,-24(s0)
   1159a:	2047a683          	lw	a3,516(a5)
   1159e:	449c                	lw	a5,8(s1)
   115a0:	4705                	li	a4,1
   115a2:	00f717bb          	sllw	a5,a4,a5
   115a6:	2781                	sext.w	a5,a5
   115a8:	2781                	sext.w	a5,a5
   115aa:	8736                	mv	a4,a3
   115ac:	8fd9                	or	a5,a5,a4
   115ae:	0007871b          	sext.w	a4,a5
   115b2:	fe843783          	ld	a5,-24(s0)
   115b6:	20e7a223          	sw	a4,516(a5)
    }
  p->_fns[p->_ind++] = fn;
   115ba:	449c                	lw	a5,8(s1)
   115bc:	0017871b          	addiw	a4,a5,1
   115c0:	2701                	sext.w	a4,a4
   115c2:	c498                	sw	a4,8(s1)
   115c4:	0789                	addi	a5,a5,2
   115c6:	078e                	slli	a5,a5,0x3
   115c8:	97a6                	add	a5,a5,s1
   115ca:	fd043703          	ld	a4,-48(s0)
   115ce:	e398                	sd	a4,0(a5)
#ifndef __SINGLE_THREAD__
  __lock_release_recursive(__atexit_recursive_mutex);
#endif
  return 0;
   115d0:	4781                	li	a5,0
}
   115d2:	853e                	mv	a0,a5
   115d4:	7462                	ld	s0,56(sp)
   115d6:	74c2                	ld	s1,48(sp)
   115d8:	6121                	addi	sp,sp,64
   115da:	8082                	ret

00000000000115dc <__call_exitprocs>:
 * otherwise only the handlers from that DSO are called.
 */

void 
__call_exitprocs (int code, void *d)
{
   115dc:	711d                	addi	sp,sp,-96
   115de:	ec86                	sd	ra,88(sp)
   115e0:	e8a2                	sd	s0,80(sp)
   115e2:	e4a6                	sd	s1,72(sp)
   115e4:	e0ca                	sd	s2,64(sp)
   115e6:	fc4e                	sd	s3,56(sp)
   115e8:	1080                	addi	s0,sp,96
   115ea:	87aa                	mv	a5,a0
   115ec:	fab43023          	sd	a1,-96(s0)
   115f0:	faf42623          	sw	a5,-84(s0)
  __lock_acquire_recursive(__atexit_recursive_mutex);
#endif

 restart:

  p = __atexit;
   115f4:	83018793          	addi	a5,gp,-2000 # 16cf8 <__atexit>
   115f8:	6384                	ld	s1,0(a5)
  lastp = &__atexit;
   115fa:	83018793          	addi	a5,gp,-2000 # 16cf8 <__atexit>
   115fe:	fcf43423          	sd	a5,-56(s0)
  while (p)
   11602:	0001                	nop
   11604:	c8e5                	beqz	s1,116f4 <__call_exitprocs+0x118>
    {
#ifdef _REENT_SMALL
      args = p->_on_exit_args_ptr;
   11606:	1104b983          	ld	s3,272(s1)
#else
      args = &p->_on_exit_args;
#endif
      for (n = p->_ind - 1; n >= 0; n--)
   1160a:	449c                	lw	a5,8(s1)
   1160c:	37fd                	addiw	a5,a5,-1
   1160e:	0007891b          	sext.w	s2,a5
   11612:	a8e9                	j	116ec <__call_exitprocs+0x110>
	{
	  int ind;

	  i = 1 << n;
   11614:	4785                	li	a5,1
   11616:	012797bb          	sllw	a5,a5,s2
   1161a:	fcf42223          	sw	a5,-60(s0)

	  /* Skip functions not from this dso.  */
	  if (d && (!args || args->_dso_handle[n] != d))
   1161e:	fa043783          	ld	a5,-96(s0)
   11622:	cf81                	beqz	a5,1163a <__call_exitprocs+0x5e>
   11624:	0a098d63          	beqz	s3,116de <__call_exitprocs+0x102>
   11628:	02090793          	addi	a5,s2,32
   1162c:	078e                	slli	a5,a5,0x3
   1162e:	97ce                	add	a5,a5,s3
   11630:	639c                	ld	a5,0(a5)
   11632:	fa043703          	ld	a4,-96(s0)
   11636:	0af71463          	bne	a4,a5,116de <__call_exitprocs+0x102>
	    continue;

	  /* Remove the function now to protect against the
	     function calling exit recursively.  */
	  fn = p->_fns[n];
   1163a:	00290793          	addi	a5,s2,2
   1163e:	078e                	slli	a5,a5,0x3
   11640:	97a6                	add	a5,a5,s1
   11642:	639c                	ld	a5,0(a5)
   11644:	faf43c23          	sd	a5,-72(s0)
	  if (n == p->_ind - 1)
   11648:	449c                	lw	a5,8(s1)
   1164a:	37fd                	addiw	a5,a5,-1
   1164c:	2781                	sext.w	a5,a5
   1164e:	874a                	mv	a4,s2
   11650:	00f71763          	bne	a4,a5,1165e <__call_exitprocs+0x82>
	    p->_ind--;
   11654:	449c                	lw	a5,8(s1)
   11656:	37fd                	addiw	a5,a5,-1
   11658:	2781                	sext.w	a5,a5
   1165a:	c49c                	sw	a5,8(s1)
   1165c:	a039                	j	1166a <__call_exitprocs+0x8e>
	  else
	    p->_fns[n] = NULL;
   1165e:	00290793          	addi	a5,s2,2
   11662:	078e                	slli	a5,a5,0x3
   11664:	97a6                	add	a5,a5,s1
   11666:	0007b023          	sd	zero,0(a5)

	  /* Skip functions that have already been called.  */
	  if (!fn)
   1166a:	fb843783          	ld	a5,-72(s0)
   1166e:	cbb5                	beqz	a5,116e2 <__call_exitprocs+0x106>
	    continue;

	  ind = p->_ind;
   11670:	449c                	lw	a5,8(s1)
   11672:	faf42a23          	sw	a5,-76(s0)

	  /* Call the function.  */
	  if (!args || (args->_fntypes & i) == 0)
   11676:	00098963          	beqz	s3,11688 <__call_exitprocs+0xac>
   1167a:	2009a703          	lw	a4,512(s3)
   1167e:	fc442783          	lw	a5,-60(s0)
   11682:	8ff9                	and	a5,a5,a4
   11684:	2781                	sext.w	a5,a5
   11686:	e789                	bnez	a5,11690 <__call_exitprocs+0xb4>
	    fn ();
   11688:	fb843783          	ld	a5,-72(s0)
   1168c:	9782                	jalr	a5
   1168e:	a825                	j	116c6 <__call_exitprocs+0xea>
	  else if ((args->_is_cxa & i) == 0)
   11690:	2049a703          	lw	a4,516(s3)
   11694:	fc442783          	lw	a5,-60(s0)
   11698:	8ff9                	and	a5,a5,a4
   1169a:	2781                	sext.w	a5,a5
   1169c:	ef89                	bnez	a5,116b6 <__call_exitprocs+0xda>
	    (*((void (*)(int, void *)) fn))(code, args->_fnargs[n]);
   1169e:	00391793          	slli	a5,s2,0x3
   116a2:	97ce                	add	a5,a5,s3
   116a4:	6394                	ld	a3,0(a5)
   116a6:	fac42703          	lw	a4,-84(s0)
   116aa:	fb843783          	ld	a5,-72(s0)
   116ae:	85b6                	mv	a1,a3
   116b0:	853a                	mv	a0,a4
   116b2:	9782                	jalr	a5
   116b4:	a809                	j	116c6 <__call_exitprocs+0xea>
	  else
	    (*((void (*)(void *)) fn))(args->_fnargs[n]);
   116b6:	00391793          	slli	a5,s2,0x3
   116ba:	97ce                	add	a5,a5,s3
   116bc:	6398                	ld	a4,0(a5)
   116be:	fb843783          	ld	a5,-72(s0)
   116c2:	853a                	mv	a0,a4
   116c4:	9782                	jalr	a5

	  /* The function we called call atexit and registered another
	     function (or functions).  Call these new functions before
	     continuing with the already registered functions.  */
	  if (ind != p->_ind || *lastp != p)
   116c6:	4498                	lw	a4,8(s1)
   116c8:	fb442783          	lw	a5,-76(s0)
   116cc:	2781                	sext.w	a5,a5
   116ce:	f2e793e3          	bne	a5,a4,115f4 <__call_exitprocs+0x18>
   116d2:	fc843783          	ld	a5,-56(s0)
   116d6:	639c                	ld	a5,0(a5)
   116d8:	00f48663          	beq	s1,a5,116e4 <__call_exitprocs+0x108>
	    goto restart;
   116dc:	bf21                	j	115f4 <__call_exitprocs+0x18>
	    continue;
   116de:	0001                	nop
   116e0:	a011                	j	116e4 <__call_exitprocs+0x108>
	    continue;
   116e2:	0001                	nop
      for (n = p->_ind - 1; n >= 0; n--)
   116e4:	fff9079b          	addiw	a5,s2,-1
   116e8:	0007891b          	sext.w	s2,a5
   116ec:	87ca                	mv	a5,s2
   116ee:	f207d3e3          	bgez	a5,11614 <__call_exitprocs+0x38>
	}

#if !defined (_ATEXIT_DYNAMIC_ALLOC) || !defined (MALLOC_PROVIDED)
      break;
   116f2:	a011                	j	116f6 <__call_exitprocs+0x11a>
    }
#ifndef __SINGLE_THREAD__
  __lock_release_recursive(__atexit_recursive_mutex);
#endif

}
   116f4:	0001                	nop
   116f6:	0001                	nop
   116f8:	60e6                	ld	ra,88(sp)
   116fa:	6446                	ld	s0,80(sp)
   116fc:	64a6                	ld	s1,72(sp)
   116fe:	6906                	ld	s2,64(sp)
   11700:	79e2                	ld	s3,56(sp)
   11702:	6125                	addi	sp,sp,96
   11704:	8082                	ret

0000000000011706 <_free_r>:
   11706:	7159                	addi	sp,sp,-112
   11708:	f486                	sd	ra,104(sp)
   1170a:	f0a2                	sd	s0,96(sp)
   1170c:	1880                	addi	s0,sp,112
   1170e:	f8a43c23          	sd	a0,-104(s0)
   11712:	f8b43823          	sd	a1,-112(s0)
   11716:	f9043783          	ld	a5,-112(s0)
   1171a:	46078e63          	beqz	a5,11b96 <_free_r+0x490>
   1171e:	f9843503          	ld	a0,-104(s0)
   11722:	2e6010ef          	jal	12a08 <__malloc_lock>
   11726:	f9043783          	ld	a5,-112(s0)
   1172a:	17c1                	addi	a5,a5,-16
   1172c:	fef43423          	sd	a5,-24(s0)
   11730:	fe843783          	ld	a5,-24(s0)
   11734:	679c                	ld	a5,8(a5)
   11736:	fcf43023          	sd	a5,-64(s0)
   1173a:	fc043783          	ld	a5,-64(s0)
   1173e:	9bf9                	andi	a5,a5,-2
   11740:	fef43023          	sd	a5,-32(s0)
   11744:	fe843703          	ld	a4,-24(s0)
   11748:	fe043783          	ld	a5,-32(s0)
   1174c:	97ba                	add	a5,a5,a4
   1174e:	faf43c23          	sd	a5,-72(s0)
   11752:	fb843783          	ld	a5,-72(s0)
   11756:	679c                	ld	a5,8(a5)
   11758:	9bf1                	andi	a5,a5,-4
   1175a:	faf43823          	sd	a5,-80(s0)
   1175e:	00005797          	auipc	a5,0x5
   11762:	bb278793          	addi	a5,a5,-1102 # 16310 <__malloc_av_>
   11766:	6b9c                	ld	a5,16(a5)
   11768:	fb843703          	ld	a4,-72(s0)
   1176c:	0af71a63          	bne	a4,a5,11820 <_free_r+0x11a>
   11770:	fe043703          	ld	a4,-32(s0)
   11774:	fb043783          	ld	a5,-80(s0)
   11778:	97ba                	add	a5,a5,a4
   1177a:	fef43023          	sd	a5,-32(s0)
   1177e:	fc043783          	ld	a5,-64(s0)
   11782:	8b85                	andi	a5,a5,1
   11784:	ebb1                	bnez	a5,117d8 <_free_r+0xd2>
   11786:	fe843783          	ld	a5,-24(s0)
   1178a:	639c                	ld	a5,0(a5)
   1178c:	faf43423          	sd	a5,-88(s0)
   11790:	fa843783          	ld	a5,-88(s0)
   11794:	40f007b3          	neg	a5,a5
   11798:	fe843703          	ld	a4,-24(s0)
   1179c:	97ba                	add	a5,a5,a4
   1179e:	fef43423          	sd	a5,-24(s0)
   117a2:	fe043703          	ld	a4,-32(s0)
   117a6:	fa843783          	ld	a5,-88(s0)
   117aa:	97ba                	add	a5,a5,a4
   117ac:	fef43023          	sd	a5,-32(s0)
   117b0:	fe843783          	ld	a5,-24(s0)
   117b4:	6f9c                	ld	a5,24(a5)
   117b6:	fcf43c23          	sd	a5,-40(s0)
   117ba:	fe843783          	ld	a5,-24(s0)
   117be:	6b9c                	ld	a5,16(a5)
   117c0:	fcf43823          	sd	a5,-48(s0)
   117c4:	fd043783          	ld	a5,-48(s0)
   117c8:	fd843703          	ld	a4,-40(s0)
   117cc:	ef98                	sd	a4,24(a5)
   117ce:	fd843783          	ld	a5,-40(s0)
   117d2:	fd043703          	ld	a4,-48(s0)
   117d6:	eb98                	sd	a4,16(a5)
   117d8:	fe043783          	ld	a5,-32(s0)
   117dc:	0017e713          	ori	a4,a5,1
   117e0:	fe843783          	ld	a5,-24(s0)
   117e4:	e798                	sd	a4,8(a5)
   117e6:	00005797          	auipc	a5,0x5
   117ea:	b2a78793          	addi	a5,a5,-1238 # 16310 <__malloc_av_>
   117ee:	fe843703          	ld	a4,-24(s0)
   117f2:	eb98                	sd	a4,16(a5)
   117f4:	00005797          	auipc	a5,0x5
   117f8:	4dc78793          	addi	a5,a5,1244 # 16cd0 <__malloc_trim_threshold>
   117fc:	639c                	ld	a5,0(a5)
   117fe:	fe043703          	ld	a4,-32(s0)
   11802:	00f76a63          	bltu	a4,a5,11816 <_free_r+0x110>
   11806:	83818793          	addi	a5,gp,-1992 # 16d00 <__malloc_top_pad>
   1180a:	639c                	ld	a5,0(a5)
   1180c:	85be                	mv	a1,a5
   1180e:	f9843503          	ld	a0,-104(s0)
   11812:	38e000ef          	jal	11ba0 <_malloc_trim_r>
   11816:	f9843503          	ld	a0,-104(s0)
   1181a:	200010ef          	jal	12a1a <__malloc_unlock>
   1181e:	aead                	j	11b98 <_free_r+0x492>
   11820:	fb843783          	ld	a5,-72(s0)
   11824:	fb043703          	ld	a4,-80(s0)
   11828:	e798                	sd	a4,8(a5)
   1182a:	fc042623          	sw	zero,-52(s0)
   1182e:	fc043783          	ld	a5,-64(s0)
   11832:	8b85                	andi	a5,a5,1
   11834:	e7bd                	bnez	a5,118a2 <_free_r+0x19c>
   11836:	fe843783          	ld	a5,-24(s0)
   1183a:	639c                	ld	a5,0(a5)
   1183c:	faf43423          	sd	a5,-88(s0)
   11840:	fa843783          	ld	a5,-88(s0)
   11844:	40f007b3          	neg	a5,a5
   11848:	fe843703          	ld	a4,-24(s0)
   1184c:	97ba                	add	a5,a5,a4
   1184e:	fef43423          	sd	a5,-24(s0)
   11852:	fe043703          	ld	a4,-32(s0)
   11856:	fa843783          	ld	a5,-88(s0)
   1185a:	97ba                	add	a5,a5,a4
   1185c:	fef43023          	sd	a5,-32(s0)
   11860:	fe843783          	ld	a5,-24(s0)
   11864:	6b98                	ld	a4,16(a5)
   11866:	00005797          	auipc	a5,0x5
   1186a:	aba78793          	addi	a5,a5,-1350 # 16320 <__malloc_av_+0x10>
   1186e:	00f71663          	bne	a4,a5,1187a <_free_r+0x174>
   11872:	4785                	li	a5,1
   11874:	fcf42623          	sw	a5,-52(s0)
   11878:	a02d                	j	118a2 <_free_r+0x19c>
   1187a:	fe843783          	ld	a5,-24(s0)
   1187e:	6f9c                	ld	a5,24(a5)
   11880:	fcf43c23          	sd	a5,-40(s0)
   11884:	fe843783          	ld	a5,-24(s0)
   11888:	6b9c                	ld	a5,16(a5)
   1188a:	fcf43823          	sd	a5,-48(s0)
   1188e:	fd043783          	ld	a5,-48(s0)
   11892:	fd843703          	ld	a4,-40(s0)
   11896:	ef98                	sd	a4,24(a5)
   11898:	fd843783          	ld	a5,-40(s0)
   1189c:	fd043703          	ld	a4,-48(s0)
   118a0:	eb98                	sd	a4,16(a5)
   118a2:	fb843703          	ld	a4,-72(s0)
   118a6:	fb043783          	ld	a5,-80(s0)
   118aa:	97ba                	add	a5,a5,a4
   118ac:	679c                	ld	a5,8(a5)
   118ae:	8b85                	andi	a5,a5,1
   118b0:	e7d9                	bnez	a5,1193e <_free_r+0x238>
   118b2:	fe043703          	ld	a4,-32(s0)
   118b6:	fb043783          	ld	a5,-80(s0)
   118ba:	97ba                	add	a5,a5,a4
   118bc:	fef43023          	sd	a5,-32(s0)
   118c0:	fcc42783          	lw	a5,-52(s0)
   118c4:	2781                	sext.w	a5,a5
   118c6:	eba1                	bnez	a5,11916 <_free_r+0x210>
   118c8:	fb843783          	ld	a5,-72(s0)
   118cc:	6b98                	ld	a4,16(a5)
   118ce:	00005797          	auipc	a5,0x5
   118d2:	a5278793          	addi	a5,a5,-1454 # 16320 <__malloc_av_+0x10>
   118d6:	04f71063          	bne	a4,a5,11916 <_free_r+0x210>
   118da:	4785                	li	a5,1
   118dc:	fcf42623          	sw	a5,-52(s0)
   118e0:	00005797          	auipc	a5,0x5
   118e4:	a4078793          	addi	a5,a5,-1472 # 16320 <__malloc_av_+0x10>
   118e8:	fe843703          	ld	a4,-24(s0)
   118ec:	ef98                	sd	a4,24(a5)
   118ee:	00005717          	auipc	a4,0x5
   118f2:	a3270713          	addi	a4,a4,-1486 # 16320 <__malloc_av_+0x10>
   118f6:	6f9c                	ld	a5,24(a5)
   118f8:	eb1c                	sd	a5,16(a4)
   118fa:	00005717          	auipc	a4,0x5
   118fe:	a2670713          	addi	a4,a4,-1498 # 16320 <__malloc_av_+0x10>
   11902:	fe843783          	ld	a5,-24(s0)
   11906:	ef98                	sd	a4,24(a5)
   11908:	fe843783          	ld	a5,-24(s0)
   1190c:	6f98                	ld	a4,24(a5)
   1190e:	fe843783          	ld	a5,-24(s0)
   11912:	eb98                	sd	a4,16(a5)
   11914:	a02d                	j	1193e <_free_r+0x238>
   11916:	fb843783          	ld	a5,-72(s0)
   1191a:	6f9c                	ld	a5,24(a5)
   1191c:	fcf43c23          	sd	a5,-40(s0)
   11920:	fb843783          	ld	a5,-72(s0)
   11924:	6b9c                	ld	a5,16(a5)
   11926:	fcf43823          	sd	a5,-48(s0)
   1192a:	fd043783          	ld	a5,-48(s0)
   1192e:	fd843703          	ld	a4,-40(s0)
   11932:	ef98                	sd	a4,24(a5)
   11934:	fd843783          	ld	a5,-40(s0)
   11938:	fd043703          	ld	a4,-48(s0)
   1193c:	eb98                	sd	a4,16(a5)
   1193e:	fe043783          	ld	a5,-32(s0)
   11942:	0017e713          	ori	a4,a5,1
   11946:	fe843783          	ld	a5,-24(s0)
   1194a:	e798                	sd	a4,8(a5)
   1194c:	fe843703          	ld	a4,-24(s0)
   11950:	fe043783          	ld	a5,-32(s0)
   11954:	97ba                	add	a5,a5,a4
   11956:	fe043703          	ld	a4,-32(s0)
   1195a:	e398                	sd	a4,0(a5)
   1195c:	fcc42783          	lw	a5,-52(s0)
   11960:	2781                	sext.w	a5,a5
   11962:	22079563          	bnez	a5,11b8c <_free_r+0x486>
   11966:	fe043703          	ld	a4,-32(s0)
   1196a:	1ff00793          	li	a5,511
   1196e:	08e7ec63          	bltu	a5,a4,11a06 <_free_r+0x300>
   11972:	fe043783          	ld	a5,-32(s0)
   11976:	838d                	srli	a5,a5,0x3
   11978:	faf42223          	sw	a5,-92(s0)
   1197c:	00005797          	auipc	a5,0x5
   11980:	99478793          	addi	a5,a5,-1644 # 16310 <__malloc_av_>
   11984:	6794                	ld	a3,8(a5)
   11986:	fa442783          	lw	a5,-92(s0)
   1198a:	41f7d71b          	sraiw	a4,a5,0x1f
   1198e:	01e7571b          	srliw	a4,a4,0x1e
   11992:	9fb9                	addw	a5,a5,a4
   11994:	4027d79b          	sraiw	a5,a5,0x2
   11998:	2781                	sext.w	a5,a5
   1199a:	873e                	mv	a4,a5
   1199c:	4785                	li	a5,1
   1199e:	00e79733          	sll	a4,a5,a4
   119a2:	00005797          	auipc	a5,0x5
   119a6:	96e78793          	addi	a5,a5,-1682 # 16310 <__malloc_av_>
   119aa:	8f55                	or	a4,a4,a3
   119ac:	e798                	sd	a4,8(a5)
   119ae:	fa442783          	lw	a5,-92(s0)
   119b2:	2785                	addiw	a5,a5,1
   119b4:	2781                	sext.w	a5,a5
   119b6:	0017979b          	slliw	a5,a5,0x1
   119ba:	2781                	sext.w	a5,a5
   119bc:	00379713          	slli	a4,a5,0x3
   119c0:	00005797          	auipc	a5,0x5
   119c4:	95078793          	addi	a5,a5,-1712 # 16310 <__malloc_av_>
   119c8:	97ba                	add	a5,a5,a4
   119ca:	17c1                	addi	a5,a5,-16
   119cc:	fcf43c23          	sd	a5,-40(s0)
   119d0:	fd843783          	ld	a5,-40(s0)
   119d4:	6b9c                	ld	a5,16(a5)
   119d6:	fcf43823          	sd	a5,-48(s0)
   119da:	fe843783          	ld	a5,-24(s0)
   119de:	fd843703          	ld	a4,-40(s0)
   119e2:	ef98                	sd	a4,24(a5)
   119e4:	fe843783          	ld	a5,-24(s0)
   119e8:	fd043703          	ld	a4,-48(s0)
   119ec:	eb98                	sd	a4,16(a5)
   119ee:	fd843783          	ld	a5,-40(s0)
   119f2:	fe843703          	ld	a4,-24(s0)
   119f6:	eb98                	sd	a4,16(a5)
   119f8:	fd843783          	ld	a5,-40(s0)
   119fc:	6b98                	ld	a4,16(a5)
   119fe:	fd043783          	ld	a5,-48(s0)
   11a02:	ef98                	sd	a4,24(a5)
   11a04:	a261                	j	11b8c <_free_r+0x486>
   11a06:	fe043783          	ld	a5,-32(s0)
   11a0a:	83a5                	srli	a5,a5,0x9
   11a0c:	e791                	bnez	a5,11a18 <_free_r+0x312>
   11a0e:	fe043783          	ld	a5,-32(s0)
   11a12:	838d                	srli	a5,a5,0x3
   11a14:	2781                	sext.w	a5,a5
   11a16:	a075                	j	11ac2 <_free_r+0x3bc>
   11a18:	fe043783          	ld	a5,-32(s0)
   11a1c:	0097d713          	srli	a4,a5,0x9
   11a20:	4791                	li	a5,4
   11a22:	00e7eb63          	bltu	a5,a4,11a38 <_free_r+0x332>
   11a26:	fe043783          	ld	a5,-32(s0)
   11a2a:	8399                	srli	a5,a5,0x6
   11a2c:	2781                	sext.w	a5,a5
   11a2e:	0387879b          	addiw	a5,a5,56
   11a32:	2781                	sext.w	a5,a5
   11a34:	2781                	sext.w	a5,a5
   11a36:	a071                	j	11ac2 <_free_r+0x3bc>
   11a38:	fe043783          	ld	a5,-32(s0)
   11a3c:	0097d713          	srli	a4,a5,0x9
   11a40:	47d1                	li	a5,20
   11a42:	00e7eb63          	bltu	a5,a4,11a58 <_free_r+0x352>
   11a46:	fe043783          	ld	a5,-32(s0)
   11a4a:	83a5                	srli	a5,a5,0x9
   11a4c:	2781                	sext.w	a5,a5
   11a4e:	05b7879b          	addiw	a5,a5,91
   11a52:	2781                	sext.w	a5,a5
   11a54:	2781                	sext.w	a5,a5
   11a56:	a0b5                	j	11ac2 <_free_r+0x3bc>
   11a58:	fe043783          	ld	a5,-32(s0)
   11a5c:	0097d713          	srli	a4,a5,0x9
   11a60:	05400793          	li	a5,84
   11a64:	00e7eb63          	bltu	a5,a4,11a7a <_free_r+0x374>
   11a68:	fe043783          	ld	a5,-32(s0)
   11a6c:	83b1                	srli	a5,a5,0xc
   11a6e:	2781                	sext.w	a5,a5
   11a70:	06e7879b          	addiw	a5,a5,110
   11a74:	2781                	sext.w	a5,a5
   11a76:	2781                	sext.w	a5,a5
   11a78:	a0a9                	j	11ac2 <_free_r+0x3bc>
   11a7a:	fe043783          	ld	a5,-32(s0)
   11a7e:	0097d713          	srli	a4,a5,0x9
   11a82:	15400793          	li	a5,340
   11a86:	00e7eb63          	bltu	a5,a4,11a9c <_free_r+0x396>
   11a8a:	fe043783          	ld	a5,-32(s0)
   11a8e:	83bd                	srli	a5,a5,0xf
   11a90:	2781                	sext.w	a5,a5
   11a92:	0777879b          	addiw	a5,a5,119
   11a96:	2781                	sext.w	a5,a5
   11a98:	2781                	sext.w	a5,a5
   11a9a:	a025                	j	11ac2 <_free_r+0x3bc>
   11a9c:	fe043783          	ld	a5,-32(s0)
   11aa0:	0097d713          	srli	a4,a5,0x9
   11aa4:	55400793          	li	a5,1364
   11aa8:	00e7eb63          	bltu	a5,a4,11abe <_free_r+0x3b8>
   11aac:	fe043783          	ld	a5,-32(s0)
   11ab0:	83c9                	srli	a5,a5,0x12
   11ab2:	2781                	sext.w	a5,a5
   11ab4:	07c7879b          	addiw	a5,a5,124
   11ab8:	2781                	sext.w	a5,a5
   11aba:	2781                	sext.w	a5,a5
   11abc:	a019                	j	11ac2 <_free_r+0x3bc>
   11abe:	07e00793          	li	a5,126
   11ac2:	faf42223          	sw	a5,-92(s0)
   11ac6:	fa442783          	lw	a5,-92(s0)
   11aca:	2785                	addiw	a5,a5,1
   11acc:	2781                	sext.w	a5,a5
   11ace:	0017979b          	slliw	a5,a5,0x1
   11ad2:	2781                	sext.w	a5,a5
   11ad4:	00379713          	slli	a4,a5,0x3
   11ad8:	00005797          	auipc	a5,0x5
   11adc:	83878793          	addi	a5,a5,-1992 # 16310 <__malloc_av_>
   11ae0:	97ba                	add	a5,a5,a4
   11ae2:	17c1                	addi	a5,a5,-16
   11ae4:	fcf43c23          	sd	a5,-40(s0)
   11ae8:	fd843783          	ld	a5,-40(s0)
   11aec:	6b9c                	ld	a5,16(a5)
   11aee:	fcf43823          	sd	a5,-48(s0)
   11af2:	fd043703          	ld	a4,-48(s0)
   11af6:	fd843783          	ld	a5,-40(s0)
   11afa:	04f71163          	bne	a4,a5,11b3c <_free_r+0x436>
   11afe:	00005797          	auipc	a5,0x5
   11b02:	81278793          	addi	a5,a5,-2030 # 16310 <__malloc_av_>
   11b06:	6794                	ld	a3,8(a5)
   11b08:	fa442783          	lw	a5,-92(s0)
   11b0c:	41f7d71b          	sraiw	a4,a5,0x1f
   11b10:	01e7571b          	srliw	a4,a4,0x1e
   11b14:	9fb9                	addw	a5,a5,a4
   11b16:	4027d79b          	sraiw	a5,a5,0x2
   11b1a:	2781                	sext.w	a5,a5
   11b1c:	873e                	mv	a4,a5
   11b1e:	4785                	li	a5,1
   11b20:	00e79733          	sll	a4,a5,a4
   11b24:	00004797          	auipc	a5,0x4
   11b28:	7ec78793          	addi	a5,a5,2028 # 16310 <__malloc_av_>
   11b2c:	8f55                	or	a4,a4,a3
   11b2e:	e798                	sd	a4,8(a5)
   11b30:	a80d                	j	11b62 <_free_r+0x45c>
   11b32:	fd043783          	ld	a5,-48(s0)
   11b36:	6b9c                	ld	a5,16(a5)
   11b38:	fcf43823          	sd	a5,-48(s0)
   11b3c:	fd043703          	ld	a4,-48(s0)
   11b40:	fd843783          	ld	a5,-40(s0)
   11b44:	00f70a63          	beq	a4,a5,11b58 <_free_r+0x452>
   11b48:	fd043783          	ld	a5,-48(s0)
   11b4c:	679c                	ld	a5,8(a5)
   11b4e:	9bf1                	andi	a5,a5,-4
   11b50:	fe043703          	ld	a4,-32(s0)
   11b54:	fcf76fe3          	bltu	a4,a5,11b32 <_free_r+0x42c>
   11b58:	fd043783          	ld	a5,-48(s0)
   11b5c:	6f9c                	ld	a5,24(a5)
   11b5e:	fcf43c23          	sd	a5,-40(s0)
   11b62:	fe843783          	ld	a5,-24(s0)
   11b66:	fd843703          	ld	a4,-40(s0)
   11b6a:	ef98                	sd	a4,24(a5)
   11b6c:	fe843783          	ld	a5,-24(s0)
   11b70:	fd043703          	ld	a4,-48(s0)
   11b74:	eb98                	sd	a4,16(a5)
   11b76:	fd843783          	ld	a5,-40(s0)
   11b7a:	fe843703          	ld	a4,-24(s0)
   11b7e:	eb98                	sd	a4,16(a5)
   11b80:	fd843783          	ld	a5,-40(s0)
   11b84:	6b98                	ld	a4,16(a5)
   11b86:	fd043783          	ld	a5,-48(s0)
   11b8a:	ef98                	sd	a4,24(a5)
   11b8c:	f9843503          	ld	a0,-104(s0)
   11b90:	68b000ef          	jal	12a1a <__malloc_unlock>
   11b94:	a011                	j	11b98 <_free_r+0x492>
   11b96:	0001                	nop
   11b98:	70a6                	ld	ra,104(sp)
   11b9a:	7406                	ld	s0,96(sp)
   11b9c:	6165                	addi	sp,sp,112
   11b9e:	8082                	ret

0000000000011ba0 <_malloc_trim_r>:
   11ba0:	715d                	addi	sp,sp,-80
   11ba2:	e486                	sd	ra,72(sp)
   11ba4:	e0a2                	sd	s0,64(sp)
   11ba6:	0880                	addi	s0,sp,80
   11ba8:	faa43c23          	sd	a0,-72(s0)
   11bac:	fab43823          	sd	a1,-80(s0)
   11bb0:	6785                	lui	a5,0x1
   11bb2:	fef43423          	sd	a5,-24(s0)
   11bb6:	fb843503          	ld	a0,-72(s0)
   11bba:	64f000ef          	jal	12a08 <__malloc_lock>
   11bbe:	00004797          	auipc	a5,0x4
   11bc2:	75278793          	addi	a5,a5,1874 # 16310 <__malloc_av_>
   11bc6:	6b9c                	ld	a5,16(a5)
   11bc8:	679c                	ld	a5,8(a5)
   11bca:	9bf1                	andi	a5,a5,-4
   11bcc:	fef43023          	sd	a5,-32(s0)
   11bd0:	fe043703          	ld	a4,-32(s0)
   11bd4:	fb043783          	ld	a5,-80(s0)
   11bd8:	8f1d                	sub	a4,a4,a5
   11bda:	fe843783          	ld	a5,-24(s0)
   11bde:	97ba                	add	a5,a5,a4
   11be0:	fdf78713          	addi	a4,a5,-33
   11be4:	fe843783          	ld	a5,-24(s0)
   11be8:	02f757b3          	divu	a5,a4,a5
   11bec:	fff78713          	addi	a4,a5,-1
   11bf0:	fe843783          	ld	a5,-24(s0)
   11bf4:	02f707b3          	mul	a5,a4,a5
   11bf8:	fcf43c23          	sd	a5,-40(s0)
   11bfc:	fe843783          	ld	a5,-24(s0)
   11c00:	fd843703          	ld	a4,-40(s0)
   11c04:	00f75863          	bge	a4,a5,11c14 <_malloc_trim_r+0x74>
   11c08:	fb843503          	ld	a0,-72(s0)
   11c0c:	60f000ef          	jal	12a1a <__malloc_unlock>
   11c10:	4781                	li	a5,0
   11c12:	a201                	j	11d12 <_malloc_trim_r+0x172>
   11c14:	4581                	li	a1,0
   11c16:	fb843503          	ld	a0,-72(s0)
   11c1a:	7ec020ef          	jal	14406 <_sbrk_r>
   11c1e:	fca43823          	sd	a0,-48(s0)
   11c22:	00004797          	auipc	a5,0x4
   11c26:	6ee78793          	addi	a5,a5,1774 # 16310 <__malloc_av_>
   11c2a:	6b98                	ld	a4,16(a5)
   11c2c:	fe043783          	ld	a5,-32(s0)
   11c30:	97ba                	add	a5,a5,a4
   11c32:	fd043703          	ld	a4,-48(s0)
   11c36:	00f70863          	beq	a4,a5,11c46 <_malloc_trim_r+0xa6>
   11c3a:	fb843503          	ld	a0,-72(s0)
   11c3e:	5dd000ef          	jal	12a1a <__malloc_unlock>
   11c42:	4781                	li	a5,0
   11c44:	a0f9                	j	11d12 <_malloc_trim_r+0x172>
   11c46:	fd843783          	ld	a5,-40(s0)
   11c4a:	40f007b3          	neg	a5,a5
   11c4e:	85be                	mv	a1,a5
   11c50:	fb843503          	ld	a0,-72(s0)
   11c54:	7b2020ef          	jal	14406 <_sbrk_r>
   11c58:	fca43423          	sd	a0,-56(s0)
   11c5c:	fc843703          	ld	a4,-56(s0)
   11c60:	57fd                	li	a5,-1
   11c62:	06f71563          	bne	a4,a5,11ccc <_malloc_trim_r+0x12c>
   11c66:	4581                	li	a1,0
   11c68:	fb843503          	ld	a0,-72(s0)
   11c6c:	79a020ef          	jal	14406 <_sbrk_r>
   11c70:	fca43823          	sd	a0,-48(s0)
   11c74:	00004797          	auipc	a5,0x4
   11c78:	69c78793          	addi	a5,a5,1692 # 16310 <__malloc_av_>
   11c7c:	6b9c                	ld	a5,16(a5)
   11c7e:	fd043703          	ld	a4,-48(s0)
   11c82:	40f707b3          	sub	a5,a4,a5
   11c86:	fef43023          	sd	a5,-32(s0)
   11c8a:	fe043703          	ld	a4,-32(s0)
   11c8e:	47fd                	li	a5,31
   11c90:	02e7d863          	bge	a5,a4,11cc0 <_malloc_trim_r+0x120>
   11c94:	81018793          	addi	a5,gp,-2032 # 16cd8 <__malloc_sbrk_base>
   11c98:	639c                	ld	a5,0(a5)
   11c9a:	fd043703          	ld	a4,-48(s0)
   11c9e:	40f707b3          	sub	a5,a4,a5
   11ca2:	0007871b          	sext.w	a4,a5
   11ca6:	b8018793          	addi	a5,gp,-1152 # 17048 <__malloc_current_mallinfo>
   11caa:	c398                	sw	a4,0(a5)
   11cac:	fe043783          	ld	a5,-32(s0)
   11cb0:	0017e713          	ori	a4,a5,1
   11cb4:	00004797          	auipc	a5,0x4
   11cb8:	65c78793          	addi	a5,a5,1628 # 16310 <__malloc_av_>
   11cbc:	6b9c                	ld	a5,16(a5)
   11cbe:	e798                	sd	a4,8(a5)
   11cc0:	fb843503          	ld	a0,-72(s0)
   11cc4:	557000ef          	jal	12a1a <__malloc_unlock>
   11cc8:	4781                	li	a5,0
   11cca:	a0a1                	j	11d12 <_malloc_trim_r+0x172>
   11ccc:	fe043703          	ld	a4,-32(s0)
   11cd0:	fd843783          	ld	a5,-40(s0)
   11cd4:	40f707b3          	sub	a5,a4,a5
   11cd8:	0017e713          	ori	a4,a5,1
   11cdc:	00004797          	auipc	a5,0x4
   11ce0:	63478793          	addi	a5,a5,1588 # 16310 <__malloc_av_>
   11ce4:	6b9c                	ld	a5,16(a5)
   11ce6:	e798                	sd	a4,8(a5)
   11ce8:	b8018793          	addi	a5,gp,-1152 # 17048 <__malloc_current_mallinfo>
   11cec:	439c                	lw	a5,0(a5)
   11cee:	0007871b          	sext.w	a4,a5
   11cf2:	fd843783          	ld	a5,-40(s0)
   11cf6:	2781                	sext.w	a5,a5
   11cf8:	40f707bb          	subw	a5,a4,a5
   11cfc:	2781                	sext.w	a5,a5
   11cfe:	0007871b          	sext.w	a4,a5
   11d02:	b8018793          	addi	a5,gp,-1152 # 17048 <__malloc_current_mallinfo>
   11d06:	c398                	sw	a4,0(a5)
   11d08:	fb843503          	ld	a0,-72(s0)
   11d0c:	50f000ef          	jal	12a1a <__malloc_unlock>
   11d10:	4785                	li	a5,1
   11d12:	853e                	mv	a0,a5
   11d14:	60a6                	ld	ra,72(sp)
   11d16:	6406                	ld	s0,64(sp)
   11d18:	6161                	addi	sp,sp,80
   11d1a:	8082                	ret

0000000000011d1c <malloc_extend_top>:
   11d1c:	7119                	addi	sp,sp,-128
   11d1e:	fc86                	sd	ra,120(sp)
   11d20:	f8a2                	sd	s0,112(sp)
   11d22:	0100                	addi	s0,sp,128
   11d24:	f8a43423          	sd	a0,-120(s0)
   11d28:	f8b43023          	sd	a1,-128(s0)
   11d2c:	fc042623          	sw	zero,-52(s0)
   11d30:	00004797          	auipc	a5,0x4
   11d34:	5e078793          	addi	a5,a5,1504 # 16310 <__malloc_av_>
   11d38:	6b9c                	ld	a5,16(a5)
   11d3a:	fcf43023          	sd	a5,-64(s0)
   11d3e:	fc043783          	ld	a5,-64(s0)
   11d42:	679c                	ld	a5,8(a5)
   11d44:	9bf1                	andi	a5,a5,-4
   11d46:	faf43c23          	sd	a5,-72(s0)
   11d4a:	fc043703          	ld	a4,-64(s0)
   11d4e:	fb843783          	ld	a5,-72(s0)
   11d52:	97ba                	add	a5,a5,a4
   11d54:	faf43823          	sd	a5,-80(s0)
   11d58:	83818793          	addi	a5,gp,-1992 # 16d00 <__malloc_top_pad>
   11d5c:	6398                	ld	a4,0(a5)
   11d5e:	f8043783          	ld	a5,-128(s0)
   11d62:	97ba                	add	a5,a5,a4
   11d64:	02078793          	addi	a5,a5,32
   11d68:	fcf43823          	sd	a5,-48(s0)
   11d6c:	6785                	lui	a5,0x1
   11d6e:	faf43423          	sd	a5,-88(s0)
   11d72:	81018793          	addi	a5,gp,-2032 # 16cd8 <__malloc_sbrk_base>
   11d76:	6398                	ld	a4,0(a5)
   11d78:	57fd                	li	a5,-1
   11d7a:	02f70063          	beq	a4,a5,11d9a <malloc_extend_top+0x7e>
   11d7e:	fa843703          	ld	a4,-88(s0)
   11d82:	fd043783          	ld	a5,-48(s0)
   11d86:	97ba                	add	a5,a5,a4
   11d88:	fff78713          	addi	a4,a5,-1 # fff <__stack_size+0xbff>
   11d8c:	fa843783          	ld	a5,-88(s0)
   11d90:	40f007b3          	neg	a5,a5
   11d94:	8ff9                	and	a5,a5,a4
   11d96:	fcf43823          	sd	a5,-48(s0)
   11d9a:	fd043783          	ld	a5,-48(s0)
   11d9e:	85be                	mv	a1,a5
   11da0:	f8843503          	ld	a0,-120(s0)
   11da4:	662020ef          	jal	14406 <_sbrk_r>
   11da8:	fea43423          	sd	a0,-24(s0)
   11dac:	fe843703          	ld	a4,-24(s0)
   11db0:	57fd                	li	a5,-1
   11db2:	28f70763          	beq	a4,a5,12040 <malloc_extend_top+0x324>
   11db6:	fe843703          	ld	a4,-24(s0)
   11dba:	fb043783          	ld	a5,-80(s0)
   11dbe:	00f77a63          	bgeu	a4,a5,11dd2 <malloc_extend_top+0xb6>
   11dc2:	00004797          	auipc	a5,0x4
   11dc6:	54e78793          	addi	a5,a5,1358 # 16310 <__malloc_av_>
   11dca:	fc043703          	ld	a4,-64(s0)
   11dce:	26f71963          	bne	a4,a5,12040 <malloc_extend_top+0x324>
   11dd2:	b8018793          	addi	a5,gp,-1152 # 17048 <__malloc_current_mallinfo>
   11dd6:	439c                	lw	a5,0(a5)
   11dd8:	0007871b          	sext.w	a4,a5
   11ddc:	fd043783          	ld	a5,-48(s0)
   11de0:	2781                	sext.w	a5,a5
   11de2:	9fb9                	addw	a5,a5,a4
   11de4:	2781                	sext.w	a5,a5
   11de6:	0007871b          	sext.w	a4,a5
   11dea:	b8018793          	addi	a5,gp,-1152 # 17048 <__malloc_current_mallinfo>
   11dee:	c398                	sw	a4,0(a5)
   11df0:	fe843703          	ld	a4,-24(s0)
   11df4:	fb043783          	ld	a5,-80(s0)
   11df8:	02f71c63          	bne	a4,a5,11e30 <malloc_extend_top+0x114>
   11dfc:	fa843783          	ld	a5,-88(s0)
   11e00:	fff78713          	addi	a4,a5,-1
   11e04:	fb043783          	ld	a5,-80(s0)
   11e08:	8ff9                	and	a5,a5,a4
   11e0a:	e39d                	bnez	a5,11e30 <malloc_extend_top+0x114>
   11e0c:	fd043703          	ld	a4,-48(s0)
   11e10:	fb843783          	ld	a5,-72(s0)
   11e14:	97ba                	add	a5,a5,a4
   11e16:	faf43023          	sd	a5,-96(s0)
   11e1a:	00004797          	auipc	a5,0x4
   11e1e:	4f678793          	addi	a5,a5,1270 # 16310 <__malloc_av_>
   11e22:	6b9c                	ld	a5,16(a5)
   11e24:	fa043703          	ld	a4,-96(s0)
   11e28:	00176713          	ori	a4,a4,1
   11e2c:	e798                	sd	a4,8(a5)
   11e2e:	aac1                	j	11ffe <malloc_extend_top+0x2e2>
   11e30:	81018793          	addi	a5,gp,-2032 # 16cd8 <__malloc_sbrk_base>
   11e34:	6398                	ld	a4,0(a5)
   11e36:	57fd                	li	a5,-1
   11e38:	00f71863          	bne	a4,a5,11e48 <malloc_extend_top+0x12c>
   11e3c:	81018793          	addi	a5,gp,-2032 # 16cd8 <__malloc_sbrk_base>
   11e40:	fe843703          	ld	a4,-24(s0)
   11e44:	e398                	sd	a4,0(a5)
   11e46:	a025                	j	11e6e <malloc_extend_top+0x152>
   11e48:	b8018793          	addi	a5,gp,-1152 # 17048 <__malloc_current_mallinfo>
   11e4c:	439c                	lw	a5,0(a5)
   11e4e:	0007871b          	sext.w	a4,a5
   11e52:	fe843683          	ld	a3,-24(s0)
   11e56:	fb043783          	ld	a5,-80(s0)
   11e5a:	40f687b3          	sub	a5,a3,a5
   11e5e:	2781                	sext.w	a5,a5
   11e60:	9fb9                	addw	a5,a5,a4
   11e62:	2781                	sext.w	a5,a5
   11e64:	0007871b          	sext.w	a4,a5
   11e68:	b8018793          	addi	a5,gp,-1152 # 17048 <__malloc_current_mallinfo>
   11e6c:	c398                	sw	a4,0(a5)
   11e6e:	fe843783          	ld	a5,-24(s0)
   11e72:	07c1                	addi	a5,a5,16
   11e74:	8bbd                	andi	a5,a5,15
   11e76:	f8f43c23          	sd	a5,-104(s0)
   11e7a:	f9843783          	ld	a5,-104(s0)
   11e7e:	c385                	beqz	a5,11e9e <malloc_extend_top+0x182>
   11e80:	4741                	li	a4,16
   11e82:	f9843783          	ld	a5,-104(s0)
   11e86:	40f707b3          	sub	a5,a4,a5
   11e8a:	fef43023          	sd	a5,-32(s0)
   11e8e:	fe843703          	ld	a4,-24(s0)
   11e92:	fe043783          	ld	a5,-32(s0)
   11e96:	97ba                	add	a5,a5,a4
   11e98:	fef43423          	sd	a5,-24(s0)
   11e9c:	a019                	j	11ea2 <malloc_extend_top+0x186>
   11e9e:	fe043023          	sd	zero,-32(s0)
   11ea2:	fe843703          	ld	a4,-24(s0)
   11ea6:	fd043783          	ld	a5,-48(s0)
   11eaa:	97ba                	add	a5,a5,a4
   11eac:	873e                	mv	a4,a5
   11eae:	fa843783          	ld	a5,-88(s0)
   11eb2:	17fd                	addi	a5,a5,-1
   11eb4:	8ff9                	and	a5,a5,a4
   11eb6:	fa843703          	ld	a4,-88(s0)
   11eba:	40f707b3          	sub	a5,a4,a5
   11ebe:	fe043703          	ld	a4,-32(s0)
   11ec2:	97ba                	add	a5,a5,a4
   11ec4:	fef43023          	sd	a5,-32(s0)
   11ec8:	fa843783          	ld	a5,-88(s0)
   11ecc:	17fd                	addi	a5,a5,-1
   11ece:	fe043703          	ld	a4,-32(s0)
   11ed2:	8ff9                	and	a5,a5,a4
   11ed4:	fef43023          	sd	a5,-32(s0)
   11ed8:	fe043783          	ld	a5,-32(s0)
   11edc:	85be                	mv	a1,a5
   11ede:	f8843503          	ld	a0,-120(s0)
   11ee2:	524020ef          	jal	14406 <_sbrk_r>
   11ee6:	fca43c23          	sd	a0,-40(s0)
   11eea:	fd843703          	ld	a4,-40(s0)
   11eee:	57fd                	li	a5,-1
   11ef0:	02f71963          	bne	a4,a5,11f22 <malloc_extend_top+0x206>
   11ef4:	fe043023          	sd	zero,-32(s0)
   11ef8:	4785                	li	a5,1
   11efa:	fcf42623          	sw	a5,-52(s0)
   11efe:	fe843703          	ld	a4,-24(s0)
   11f02:	fd043783          	ld	a5,-48(s0)
   11f06:	97ba                	add	a5,a5,a4
   11f08:	fcf43c23          	sd	a5,-40(s0)
   11f0c:	f9843783          	ld	a5,-104(s0)
   11f10:	cb89                	beqz	a5,11f22 <malloc_extend_top+0x206>
   11f12:	f9843783          	ld	a5,-104(s0)
   11f16:	17c1                	addi	a5,a5,-16
   11f18:	fd843703          	ld	a4,-40(s0)
   11f1c:	97ba                	add	a5,a5,a4
   11f1e:	fcf43c23          	sd	a5,-40(s0)
   11f22:	b8018793          	addi	a5,gp,-1152 # 17048 <__malloc_current_mallinfo>
   11f26:	439c                	lw	a5,0(a5)
   11f28:	0007871b          	sext.w	a4,a5
   11f2c:	fe043783          	ld	a5,-32(s0)
   11f30:	2781                	sext.w	a5,a5
   11f32:	9fb9                	addw	a5,a5,a4
   11f34:	2781                	sext.w	a5,a5
   11f36:	0007871b          	sext.w	a4,a5
   11f3a:	b8018793          	addi	a5,gp,-1152 # 17048 <__malloc_current_mallinfo>
   11f3e:	c398                	sw	a4,0(a5)
   11f40:	00004797          	auipc	a5,0x4
   11f44:	3d078793          	addi	a5,a5,976 # 16310 <__malloc_av_>
   11f48:	fe843703          	ld	a4,-24(s0)
   11f4c:	eb98                	sd	a4,16(a5)
   11f4e:	fd843703          	ld	a4,-40(s0)
   11f52:	fe843783          	ld	a5,-24(s0)
   11f56:	40f707b3          	sub	a5,a4,a5
   11f5a:	873e                	mv	a4,a5
   11f5c:	fe043783          	ld	a5,-32(s0)
   11f60:	97ba                	add	a5,a5,a4
   11f62:	faf43023          	sd	a5,-96(s0)
   11f66:	00004797          	auipc	a5,0x4
   11f6a:	3aa78793          	addi	a5,a5,938 # 16310 <__malloc_av_>
   11f6e:	6b9c                	ld	a5,16(a5)
   11f70:	fa043703          	ld	a4,-96(s0)
   11f74:	00176713          	ori	a4,a4,1
   11f78:	e798                	sd	a4,8(a5)
   11f7a:	00004797          	auipc	a5,0x4
   11f7e:	39678793          	addi	a5,a5,918 # 16310 <__malloc_av_>
   11f82:	fc043703          	ld	a4,-64(s0)
   11f86:	06f70c63          	beq	a4,a5,11ffe <malloc_extend_top+0x2e2>
   11f8a:	fb843703          	ld	a4,-72(s0)
   11f8e:	47fd                	li	a5,31
   11f90:	00e7ea63          	bltu	a5,a4,11fa4 <malloc_extend_top+0x288>
   11f94:	00004797          	auipc	a5,0x4
   11f98:	37c78793          	addi	a5,a5,892 # 16310 <__malloc_av_>
   11f9c:	6b9c                	ld	a5,16(a5)
   11f9e:	4705                	li	a4,1
   11fa0:	e798                	sd	a4,8(a5)
   11fa2:	a045                	j	12042 <malloc_extend_top+0x326>
   11fa4:	fb843783          	ld	a5,-72(s0)
   11fa8:	17a1                	addi	a5,a5,-24
   11faa:	9bc1                	andi	a5,a5,-16
   11fac:	faf43c23          	sd	a5,-72(s0)
   11fb0:	fc043783          	ld	a5,-64(s0)
   11fb4:	679c                	ld	a5,8(a5)
   11fb6:	0017f713          	andi	a4,a5,1
   11fba:	fb843783          	ld	a5,-72(s0)
   11fbe:	8f5d                	or	a4,a4,a5
   11fc0:	fc043783          	ld	a5,-64(s0)
   11fc4:	e798                	sd	a4,8(a5)
   11fc6:	fc043703          	ld	a4,-64(s0)
   11fca:	fb843783          	ld	a5,-72(s0)
   11fce:	97ba                	add	a5,a5,a4
   11fd0:	4725                	li	a4,9
   11fd2:	e798                	sd	a4,8(a5)
   11fd4:	fb843783          	ld	a5,-72(s0)
   11fd8:	07a1                	addi	a5,a5,8
   11fda:	fc043703          	ld	a4,-64(s0)
   11fde:	97ba                	add	a5,a5,a4
   11fe0:	4725                	li	a4,9
   11fe2:	e798                	sd	a4,8(a5)
   11fe4:	fb843703          	ld	a4,-72(s0)
   11fe8:	47fd                	li	a5,31
   11fea:	00e7fa63          	bgeu	a5,a4,11ffe <malloc_extend_top+0x2e2>
   11fee:	fc043783          	ld	a5,-64(s0)
   11ff2:	07c1                	addi	a5,a5,16
   11ff4:	85be                	mv	a1,a5
   11ff6:	f8843503          	ld	a0,-120(s0)
   11ffa:	f0cff0ef          	jal	11706 <_free_r>
   11ffe:	b8018793          	addi	a5,gp,-1152 # 17048 <__malloc_current_mallinfo>
   12002:	439c                	lw	a5,0(a5)
   12004:	873e                	mv	a4,a5
   12006:	84018793          	addi	a5,gp,-1984 # 16d08 <__malloc_max_sbrked_mem>
   1200a:	639c                	ld	a5,0(a5)
   1200c:	00e7f963          	bgeu	a5,a4,1201e <malloc_extend_top+0x302>
   12010:	b8018793          	addi	a5,gp,-1152 # 17048 <__malloc_current_mallinfo>
   12014:	439c                	lw	a5,0(a5)
   12016:	873e                	mv	a4,a5
   12018:	84018793          	addi	a5,gp,-1984 # 16d08 <__malloc_max_sbrked_mem>
   1201c:	e398                	sd	a4,0(a5)
   1201e:	b8018793          	addi	a5,gp,-1152 # 17048 <__malloc_current_mallinfo>
   12022:	439c                	lw	a5,0(a5)
   12024:	873e                	mv	a4,a5
   12026:	84818793          	addi	a5,gp,-1976 # 16d10 <__malloc_max_total_mem>
   1202a:	639c                	ld	a5,0(a5)
   1202c:	00e7fb63          	bgeu	a5,a4,12042 <malloc_extend_top+0x326>
   12030:	b8018793          	addi	a5,gp,-1152 # 17048 <__malloc_current_mallinfo>
   12034:	439c                	lw	a5,0(a5)
   12036:	873e                	mv	a4,a5
   12038:	84818793          	addi	a5,gp,-1976 # 16d10 <__malloc_max_total_mem>
   1203c:	e398                	sd	a4,0(a5)
   1203e:	a011                	j	12042 <malloc_extend_top+0x326>
   12040:	0001                	nop
   12042:	70e6                	ld	ra,120(sp)
   12044:	7446                	ld	s0,112(sp)
   12046:	6109                	addi	sp,sp,128
   12048:	8082                	ret

000000000001204a <_malloc_r>:
   1204a:	7175                	addi	sp,sp,-144
   1204c:	e506                	sd	ra,136(sp)
   1204e:	e122                	sd	s0,128(sp)
   12050:	0900                	addi	s0,sp,144
   12052:	f6a43c23          	sd	a0,-136(s0)
   12056:	f6b43823          	sd	a1,-144(s0)
   1205a:	f7043783          	ld	a5,-144(s0)
   1205e:	01778713          	addi	a4,a5,23
   12062:	02e00793          	li	a5,46
   12066:	00e7f763          	bgeu	a5,a4,12074 <_malloc_r+0x2a>
   1206a:	f7043783          	ld	a5,-144(s0)
   1206e:	07dd                	addi	a5,a5,23
   12070:	9bc1                	andi	a5,a5,-16
   12072:	a019                	j	12078 <_malloc_r+0x2e>
   12074:	02000793          	li	a5,32
   12078:	faf43023          	sd	a5,-96(s0)
   1207c:	fa043703          	ld	a4,-96(s0)
   12080:	800007b7          	lui	a5,0x80000
   12084:	fff7c793          	not	a5,a5
   12088:	00e7e863          	bltu	a5,a4,12098 <_malloc_r+0x4e>
   1208c:	fa043703          	ld	a4,-96(s0)
   12090:	f7043783          	ld	a5,-144(s0)
   12094:	00f77963          	bgeu	a4,a5,120a6 <_malloc_r+0x5c>
   12098:	f7843783          	ld	a5,-136(s0)
   1209c:	4731                	li	a4,12
   1209e:	c398                	sw	a4,0(a5)
   120a0:	4781                	li	a5,0
   120a2:	15d0006f          	j	129fe <_malloc_r+0x9b4>
   120a6:	f7843503          	ld	a0,-136(s0)
   120aa:	15f000ef          	jal	12a08 <__malloc_lock>
   120ae:	fa043703          	ld	a4,-96(s0)
   120b2:	1f700793          	li	a5,503
   120b6:	0ce7ea63          	bltu	a5,a4,1218a <_malloc_r+0x140>
   120ba:	fa043783          	ld	a5,-96(s0)
   120be:	838d                	srli	a5,a5,0x3
   120c0:	fef42223          	sw	a5,-28(s0)
   120c4:	fe442783          	lw	a5,-28(s0)
   120c8:	2785                	addiw	a5,a5,1 # ffffffff80000001 <_eheap+0xffffffff7ffe6b71>
   120ca:	2781                	sext.w	a5,a5
   120cc:	0017979b          	slliw	a5,a5,0x1
   120d0:	2781                	sext.w	a5,a5
   120d2:	00379713          	slli	a4,a5,0x3
   120d6:	00004797          	auipc	a5,0x4
   120da:	23a78793          	addi	a5,a5,570 # 16310 <__malloc_av_>
   120de:	97ba                	add	a5,a5,a4
   120e0:	17c1                	addi	a5,a5,-16
   120e2:	faf43423          	sd	a5,-88(s0)
   120e6:	fa843783          	ld	a5,-88(s0)
   120ea:	6f9c                	ld	a5,24(a5)
   120ec:	fef43423          	sd	a5,-24(s0)
   120f0:	fe843703          	ld	a4,-24(s0)
   120f4:	fa843783          	ld	a5,-88(s0)
   120f8:	00f71c63          	bne	a4,a5,12110 <_malloc_r+0xc6>
   120fc:	fa843783          	ld	a5,-88(s0)
   12100:	07c1                	addi	a5,a5,16
   12102:	faf43423          	sd	a5,-88(s0)
   12106:	fa843783          	ld	a5,-88(s0)
   1210a:	6f9c                	ld	a5,24(a5)
   1210c:	fef43423          	sd	a5,-24(s0)
   12110:	fe843703          	ld	a4,-24(s0)
   12114:	fa843783          	ld	a5,-88(s0)
   12118:	06f70363          	beq	a4,a5,1217e <_malloc_r+0x134>
   1211c:	fe843783          	ld	a5,-24(s0)
   12120:	679c                	ld	a5,8(a5)
   12122:	9bf1                	andi	a5,a5,-4
   12124:	f8f43c23          	sd	a5,-104(s0)
   12128:	fe843783          	ld	a5,-24(s0)
   1212c:	6f9c                	ld	a5,24(a5)
   1212e:	faf43823          	sd	a5,-80(s0)
   12132:	fe843783          	ld	a5,-24(s0)
   12136:	6b9c                	ld	a5,16(a5)
   12138:	faf43c23          	sd	a5,-72(s0)
   1213c:	fb843783          	ld	a5,-72(s0)
   12140:	fb043703          	ld	a4,-80(s0)
   12144:	ef98                	sd	a4,24(a5)
   12146:	fb043783          	ld	a5,-80(s0)
   1214a:	fb843703          	ld	a4,-72(s0)
   1214e:	eb98                	sd	a4,16(a5)
   12150:	fe843703          	ld	a4,-24(s0)
   12154:	f9843783          	ld	a5,-104(s0)
   12158:	97ba                	add	a5,a5,a4
   1215a:	6798                	ld	a4,8(a5)
   1215c:	fe843683          	ld	a3,-24(s0)
   12160:	f9843783          	ld	a5,-104(s0)
   12164:	97b6                	add	a5,a5,a3
   12166:	00176713          	ori	a4,a4,1
   1216a:	e798                	sd	a4,8(a5)
   1216c:	f7843503          	ld	a0,-136(s0)
   12170:	0ab000ef          	jal	12a1a <__malloc_unlock>
   12174:	fe843783          	ld	a5,-24(s0)
   12178:	07c1                	addi	a5,a5,16
   1217a:	0850006f          	j	129fe <_malloc_r+0x9b4>
   1217e:	fe442783          	lw	a5,-28(s0)
   12182:	2789                	addiw	a5,a5,2
   12184:	fef42223          	sw	a5,-28(s0)
   12188:	aa79                	j	12326 <_malloc_r+0x2dc>
   1218a:	fa043783          	ld	a5,-96(s0)
   1218e:	83a5                	srli	a5,a5,0x9
   12190:	e791                	bnez	a5,1219c <_malloc_r+0x152>
   12192:	fa043783          	ld	a5,-96(s0)
   12196:	838d                	srli	a5,a5,0x3
   12198:	2781                	sext.w	a5,a5
   1219a:	a075                	j	12246 <_malloc_r+0x1fc>
   1219c:	fa043783          	ld	a5,-96(s0)
   121a0:	0097d713          	srli	a4,a5,0x9
   121a4:	4791                	li	a5,4
   121a6:	00e7eb63          	bltu	a5,a4,121bc <_malloc_r+0x172>
   121aa:	fa043783          	ld	a5,-96(s0)
   121ae:	8399                	srli	a5,a5,0x6
   121b0:	2781                	sext.w	a5,a5
   121b2:	0387879b          	addiw	a5,a5,56
   121b6:	2781                	sext.w	a5,a5
   121b8:	2781                	sext.w	a5,a5
   121ba:	a071                	j	12246 <_malloc_r+0x1fc>
   121bc:	fa043783          	ld	a5,-96(s0)
   121c0:	0097d713          	srli	a4,a5,0x9
   121c4:	47d1                	li	a5,20
   121c6:	00e7eb63          	bltu	a5,a4,121dc <_malloc_r+0x192>
   121ca:	fa043783          	ld	a5,-96(s0)
   121ce:	83a5                	srli	a5,a5,0x9
   121d0:	2781                	sext.w	a5,a5
   121d2:	05b7879b          	addiw	a5,a5,91
   121d6:	2781                	sext.w	a5,a5
   121d8:	2781                	sext.w	a5,a5
   121da:	a0b5                	j	12246 <_malloc_r+0x1fc>
   121dc:	fa043783          	ld	a5,-96(s0)
   121e0:	0097d713          	srli	a4,a5,0x9
   121e4:	05400793          	li	a5,84
   121e8:	00e7eb63          	bltu	a5,a4,121fe <_malloc_r+0x1b4>
   121ec:	fa043783          	ld	a5,-96(s0)
   121f0:	83b1                	srli	a5,a5,0xc
   121f2:	2781                	sext.w	a5,a5
   121f4:	06e7879b          	addiw	a5,a5,110
   121f8:	2781                	sext.w	a5,a5
   121fa:	2781                	sext.w	a5,a5
   121fc:	a0a9                	j	12246 <_malloc_r+0x1fc>
   121fe:	fa043783          	ld	a5,-96(s0)
   12202:	0097d713          	srli	a4,a5,0x9
   12206:	15400793          	li	a5,340
   1220a:	00e7eb63          	bltu	a5,a4,12220 <_malloc_r+0x1d6>
   1220e:	fa043783          	ld	a5,-96(s0)
   12212:	83bd                	srli	a5,a5,0xf
   12214:	2781                	sext.w	a5,a5
   12216:	0777879b          	addiw	a5,a5,119
   1221a:	2781                	sext.w	a5,a5
   1221c:	2781                	sext.w	a5,a5
   1221e:	a025                	j	12246 <_malloc_r+0x1fc>
   12220:	fa043783          	ld	a5,-96(s0)
   12224:	0097d713          	srli	a4,a5,0x9
   12228:	55400793          	li	a5,1364
   1222c:	00e7eb63          	bltu	a5,a4,12242 <_malloc_r+0x1f8>
   12230:	fa043783          	ld	a5,-96(s0)
   12234:	83c9                	srli	a5,a5,0x12
   12236:	2781                	sext.w	a5,a5
   12238:	07c7879b          	addiw	a5,a5,124
   1223c:	2781                	sext.w	a5,a5
   1223e:	2781                	sext.w	a5,a5
   12240:	a019                	j	12246 <_malloc_r+0x1fc>
   12242:	07e00793          	li	a5,126
   12246:	fef42223          	sw	a5,-28(s0)
   1224a:	fe442783          	lw	a5,-28(s0)
   1224e:	2785                	addiw	a5,a5,1
   12250:	2781                	sext.w	a5,a5
   12252:	0017979b          	slliw	a5,a5,0x1
   12256:	2781                	sext.w	a5,a5
   12258:	00379713          	slli	a4,a5,0x3
   1225c:	00004797          	auipc	a5,0x4
   12260:	0b478793          	addi	a5,a5,180 # 16310 <__malloc_av_>
   12264:	97ba                	add	a5,a5,a4
   12266:	17c1                	addi	a5,a5,-16
   12268:	fcf43c23          	sd	a5,-40(s0)
   1226c:	fd843783          	ld	a5,-40(s0)
   12270:	6f9c                	ld	a5,24(a5)
   12272:	fef43423          	sd	a5,-24(s0)
   12276:	a869                	j	12310 <_malloc_r+0x2c6>
   12278:	fe843783          	ld	a5,-24(s0)
   1227c:	679c                	ld	a5,8(a5)
   1227e:	9bf1                	andi	a5,a5,-4
   12280:	f8f43c23          	sd	a5,-104(s0)
   12284:	f9843703          	ld	a4,-104(s0)
   12288:	fa043783          	ld	a5,-96(s0)
   1228c:	40f707b3          	sub	a5,a4,a5
   12290:	fcf43823          	sd	a5,-48(s0)
   12294:	fd043703          	ld	a4,-48(s0)
   12298:	47fd                	li	a5,31
   1229a:	00e7d863          	bge	a5,a4,122aa <_malloc_r+0x260>
   1229e:	fe442783          	lw	a5,-28(s0)
   122a2:	37fd                	addiw	a5,a5,-1
   122a4:	fef42223          	sw	a5,-28(s0)
   122a8:	a895                	j	1231c <_malloc_r+0x2d2>
   122aa:	fd043783          	ld	a5,-48(s0)
   122ae:	0407cc63          	bltz	a5,12306 <_malloc_r+0x2bc>
   122b2:	fe843783          	ld	a5,-24(s0)
   122b6:	6f9c                	ld	a5,24(a5)
   122b8:	faf43823          	sd	a5,-80(s0)
   122bc:	fe843783          	ld	a5,-24(s0)
   122c0:	6b9c                	ld	a5,16(a5)
   122c2:	faf43c23          	sd	a5,-72(s0)
   122c6:	fb843783          	ld	a5,-72(s0)
   122ca:	fb043703          	ld	a4,-80(s0)
   122ce:	ef98                	sd	a4,24(a5)
   122d0:	fb043783          	ld	a5,-80(s0)
   122d4:	fb843703          	ld	a4,-72(s0)
   122d8:	eb98                	sd	a4,16(a5)
   122da:	fe843703          	ld	a4,-24(s0)
   122de:	f9843783          	ld	a5,-104(s0)
   122e2:	97ba                	add	a5,a5,a4
   122e4:	6798                	ld	a4,8(a5)
   122e6:	fe843683          	ld	a3,-24(s0)
   122ea:	f9843783          	ld	a5,-104(s0)
   122ee:	97b6                	add	a5,a5,a3
   122f0:	00176713          	ori	a4,a4,1
   122f4:	e798                	sd	a4,8(a5)
   122f6:	f7843503          	ld	a0,-136(s0)
   122fa:	720000ef          	jal	12a1a <__malloc_unlock>
   122fe:	fe843783          	ld	a5,-24(s0)
   12302:	07c1                	addi	a5,a5,16
   12304:	aded                	j	129fe <_malloc_r+0x9b4>
   12306:	fe843783          	ld	a5,-24(s0)
   1230a:	6f9c                	ld	a5,24(a5)
   1230c:	fef43423          	sd	a5,-24(s0)
   12310:	fe843703          	ld	a4,-24(s0)
   12314:	fd843783          	ld	a5,-40(s0)
   12318:	f6f710e3          	bne	a4,a5,12278 <_malloc_r+0x22e>
   1231c:	fe442783          	lw	a5,-28(s0)
   12320:	2785                	addiw	a5,a5,1
   12322:	fef42223          	sw	a5,-28(s0)
   12326:	00004797          	auipc	a5,0x4
   1232a:	ffa78793          	addi	a5,a5,-6 # 16320 <__malloc_av_+0x10>
   1232e:	6b9c                	ld	a5,16(a5)
   12330:	fef43423          	sd	a5,-24(s0)
   12334:	00004797          	auipc	a5,0x4
   12338:	fec78793          	addi	a5,a5,-20 # 16320 <__malloc_av_+0x10>
   1233c:	fe843703          	ld	a4,-24(s0)
   12340:	32f70163          	beq	a4,a5,12662 <_malloc_r+0x618>
   12344:	fe843783          	ld	a5,-24(s0)
   12348:	679c                	ld	a5,8(a5)
   1234a:	9bf1                	andi	a5,a5,-4
   1234c:	f8f43c23          	sd	a5,-104(s0)
   12350:	f9843703          	ld	a4,-104(s0)
   12354:	fa043783          	ld	a5,-96(s0)
   12358:	40f707b3          	sub	a5,a4,a5
   1235c:	fcf43823          	sd	a5,-48(s0)
   12360:	fd043703          	ld	a4,-48(s0)
   12364:	47fd                	li	a5,31
   12366:	08e7d263          	bge	a5,a4,123ea <_malloc_r+0x3a0>
   1236a:	fe843703          	ld	a4,-24(s0)
   1236e:	fa043783          	ld	a5,-96(s0)
   12372:	97ba                	add	a5,a5,a4
   12374:	f8f43423          	sd	a5,-120(s0)
   12378:	fa043783          	ld	a5,-96(s0)
   1237c:	0017e713          	ori	a4,a5,1
   12380:	fe843783          	ld	a5,-24(s0)
   12384:	e798                	sd	a4,8(a5)
   12386:	00004797          	auipc	a5,0x4
   1238a:	f9a78793          	addi	a5,a5,-102 # 16320 <__malloc_av_+0x10>
   1238e:	f8843703          	ld	a4,-120(s0)
   12392:	ef98                	sd	a4,24(a5)
   12394:	00004717          	auipc	a4,0x4
   12398:	f8c70713          	addi	a4,a4,-116 # 16320 <__malloc_av_+0x10>
   1239c:	6f9c                	ld	a5,24(a5)
   1239e:	eb1c                	sd	a5,16(a4)
   123a0:	00004717          	auipc	a4,0x4
   123a4:	f8070713          	addi	a4,a4,-128 # 16320 <__malloc_av_+0x10>
   123a8:	f8843783          	ld	a5,-120(s0)
   123ac:	ef98                	sd	a4,24(a5)
   123ae:	f8843783          	ld	a5,-120(s0)
   123b2:	6f98                	ld	a4,24(a5)
   123b4:	f8843783          	ld	a5,-120(s0)
   123b8:	eb98                	sd	a4,16(a5)
   123ba:	fd043783          	ld	a5,-48(s0)
   123be:	0017e793          	ori	a5,a5,1
   123c2:	873e                	mv	a4,a5
   123c4:	f8843783          	ld	a5,-120(s0)
   123c8:	e798                	sd	a4,8(a5)
   123ca:	fd043783          	ld	a5,-48(s0)
   123ce:	f8843703          	ld	a4,-120(s0)
   123d2:	97ba                	add	a5,a5,a4
   123d4:	fd043703          	ld	a4,-48(s0)
   123d8:	e398                	sd	a4,0(a5)
   123da:	f7843503          	ld	a0,-136(s0)
   123de:	63c000ef          	jal	12a1a <__malloc_unlock>
   123e2:	fe843783          	ld	a5,-24(s0)
   123e6:	07c1                	addi	a5,a5,16
   123e8:	ad19                	j	129fe <_malloc_r+0x9b4>
   123ea:	00004797          	auipc	a5,0x4
   123ee:	f3678793          	addi	a5,a5,-202 # 16320 <__malloc_av_+0x10>
   123f2:	00004717          	auipc	a4,0x4
   123f6:	f2e70713          	addi	a4,a4,-210 # 16320 <__malloc_av_+0x10>
   123fa:	ef98                	sd	a4,24(a5)
   123fc:	00004717          	auipc	a4,0x4
   12400:	f2470713          	addi	a4,a4,-220 # 16320 <__malloc_av_+0x10>
   12404:	6f9c                	ld	a5,24(a5)
   12406:	eb1c                	sd	a5,16(a4)
   12408:	fd043783          	ld	a5,-48(s0)
   1240c:	0207c863          	bltz	a5,1243c <_malloc_r+0x3f2>
   12410:	fe843703          	ld	a4,-24(s0)
   12414:	f9843783          	ld	a5,-104(s0)
   12418:	97ba                	add	a5,a5,a4
   1241a:	6798                	ld	a4,8(a5)
   1241c:	fe843683          	ld	a3,-24(s0)
   12420:	f9843783          	ld	a5,-104(s0)
   12424:	97b6                	add	a5,a5,a3
   12426:	00176713          	ori	a4,a4,1
   1242a:	e798                	sd	a4,8(a5)
   1242c:	f7843503          	ld	a0,-136(s0)
   12430:	5ea000ef          	jal	12a1a <__malloc_unlock>
   12434:	fe843783          	ld	a5,-24(s0)
   12438:	07c1                	addi	a5,a5,16
   1243a:	a3d1                	j	129fe <_malloc_r+0x9b4>
   1243c:	f9843703          	ld	a4,-104(s0)
   12440:	1ff00793          	li	a5,511
   12444:	08e7ec63          	bltu	a5,a4,124dc <_malloc_r+0x492>
   12448:	f9843783          	ld	a5,-104(s0)
   1244c:	838d                	srli	a5,a5,0x3
   1244e:	f8f42a23          	sw	a5,-108(s0)
   12452:	00004797          	auipc	a5,0x4
   12456:	ebe78793          	addi	a5,a5,-322 # 16310 <__malloc_av_>
   1245a:	6794                	ld	a3,8(a5)
   1245c:	f9442783          	lw	a5,-108(s0)
   12460:	41f7d71b          	sraiw	a4,a5,0x1f
   12464:	01e7571b          	srliw	a4,a4,0x1e
   12468:	9fb9                	addw	a5,a5,a4
   1246a:	4027d79b          	sraiw	a5,a5,0x2
   1246e:	2781                	sext.w	a5,a5
   12470:	873e                	mv	a4,a5
   12472:	4785                	li	a5,1
   12474:	00e79733          	sll	a4,a5,a4
   12478:	00004797          	auipc	a5,0x4
   1247c:	e9878793          	addi	a5,a5,-360 # 16310 <__malloc_av_>
   12480:	8f55                	or	a4,a4,a3
   12482:	e798                	sd	a4,8(a5)
   12484:	f9442783          	lw	a5,-108(s0)
   12488:	2785                	addiw	a5,a5,1
   1248a:	2781                	sext.w	a5,a5
   1248c:	0017979b          	slliw	a5,a5,0x1
   12490:	2781                	sext.w	a5,a5
   12492:	00379713          	slli	a4,a5,0x3
   12496:	00004797          	auipc	a5,0x4
   1249a:	e7a78793          	addi	a5,a5,-390 # 16310 <__malloc_av_>
   1249e:	97ba                	add	a5,a5,a4
   124a0:	17c1                	addi	a5,a5,-16
   124a2:	faf43823          	sd	a5,-80(s0)
   124a6:	fb043783          	ld	a5,-80(s0)
   124aa:	6b9c                	ld	a5,16(a5)
   124ac:	faf43c23          	sd	a5,-72(s0)
   124b0:	fe843783          	ld	a5,-24(s0)
   124b4:	fb043703          	ld	a4,-80(s0)
   124b8:	ef98                	sd	a4,24(a5)
   124ba:	fe843783          	ld	a5,-24(s0)
   124be:	fb843703          	ld	a4,-72(s0)
   124c2:	eb98                	sd	a4,16(a5)
   124c4:	fb043783          	ld	a5,-80(s0)
   124c8:	fe843703          	ld	a4,-24(s0)
   124cc:	eb98                	sd	a4,16(a5)
   124ce:	fb043783          	ld	a5,-80(s0)
   124d2:	6b98                	ld	a4,16(a5)
   124d4:	fb843783          	ld	a5,-72(s0)
   124d8:	ef98                	sd	a4,24(a5)
   124da:	a261                	j	12662 <_malloc_r+0x618>
   124dc:	f9843783          	ld	a5,-104(s0)
   124e0:	83a5                	srli	a5,a5,0x9
   124e2:	e791                	bnez	a5,124ee <_malloc_r+0x4a4>
   124e4:	f9843783          	ld	a5,-104(s0)
   124e8:	838d                	srli	a5,a5,0x3
   124ea:	2781                	sext.w	a5,a5
   124ec:	a075                	j	12598 <_malloc_r+0x54e>
   124ee:	f9843783          	ld	a5,-104(s0)
   124f2:	0097d713          	srli	a4,a5,0x9
   124f6:	4791                	li	a5,4
   124f8:	00e7eb63          	bltu	a5,a4,1250e <_malloc_r+0x4c4>
   124fc:	f9843783          	ld	a5,-104(s0)
   12500:	8399                	srli	a5,a5,0x6
   12502:	2781                	sext.w	a5,a5
   12504:	0387879b          	addiw	a5,a5,56
   12508:	2781                	sext.w	a5,a5
   1250a:	2781                	sext.w	a5,a5
   1250c:	a071                	j	12598 <_malloc_r+0x54e>
   1250e:	f9843783          	ld	a5,-104(s0)
   12512:	0097d713          	srli	a4,a5,0x9
   12516:	47d1                	li	a5,20
   12518:	00e7eb63          	bltu	a5,a4,1252e <_malloc_r+0x4e4>
   1251c:	f9843783          	ld	a5,-104(s0)
   12520:	83a5                	srli	a5,a5,0x9
   12522:	2781                	sext.w	a5,a5
   12524:	05b7879b          	addiw	a5,a5,91
   12528:	2781                	sext.w	a5,a5
   1252a:	2781                	sext.w	a5,a5
   1252c:	a0b5                	j	12598 <_malloc_r+0x54e>
   1252e:	f9843783          	ld	a5,-104(s0)
   12532:	0097d713          	srli	a4,a5,0x9
   12536:	05400793          	li	a5,84
   1253a:	00e7eb63          	bltu	a5,a4,12550 <_malloc_r+0x506>
   1253e:	f9843783          	ld	a5,-104(s0)
   12542:	83b1                	srli	a5,a5,0xc
   12544:	2781                	sext.w	a5,a5
   12546:	06e7879b          	addiw	a5,a5,110
   1254a:	2781                	sext.w	a5,a5
   1254c:	2781                	sext.w	a5,a5
   1254e:	a0a9                	j	12598 <_malloc_r+0x54e>
   12550:	f9843783          	ld	a5,-104(s0)
   12554:	0097d713          	srli	a4,a5,0x9
   12558:	15400793          	li	a5,340
   1255c:	00e7eb63          	bltu	a5,a4,12572 <_malloc_r+0x528>
   12560:	f9843783          	ld	a5,-104(s0)
   12564:	83bd                	srli	a5,a5,0xf
   12566:	2781                	sext.w	a5,a5
   12568:	0777879b          	addiw	a5,a5,119
   1256c:	2781                	sext.w	a5,a5
   1256e:	2781                	sext.w	a5,a5
   12570:	a025                	j	12598 <_malloc_r+0x54e>
   12572:	f9843783          	ld	a5,-104(s0)
   12576:	0097d713          	srli	a4,a5,0x9
   1257a:	55400793          	li	a5,1364
   1257e:	00e7eb63          	bltu	a5,a4,12594 <_malloc_r+0x54a>
   12582:	f9843783          	ld	a5,-104(s0)
   12586:	83c9                	srli	a5,a5,0x12
   12588:	2781                	sext.w	a5,a5
   1258a:	07c7879b          	addiw	a5,a5,124
   1258e:	2781                	sext.w	a5,a5
   12590:	2781                	sext.w	a5,a5
   12592:	a019                	j	12598 <_malloc_r+0x54e>
   12594:	07e00793          	li	a5,126
   12598:	f8f42a23          	sw	a5,-108(s0)
   1259c:	f9442783          	lw	a5,-108(s0)
   125a0:	2785                	addiw	a5,a5,1
   125a2:	2781                	sext.w	a5,a5
   125a4:	0017979b          	slliw	a5,a5,0x1
   125a8:	2781                	sext.w	a5,a5
   125aa:	00379713          	slli	a4,a5,0x3
   125ae:	00004797          	auipc	a5,0x4
   125b2:	d6278793          	addi	a5,a5,-670 # 16310 <__malloc_av_>
   125b6:	97ba                	add	a5,a5,a4
   125b8:	17c1                	addi	a5,a5,-16
   125ba:	faf43823          	sd	a5,-80(s0)
   125be:	fb043783          	ld	a5,-80(s0)
   125c2:	6b9c                	ld	a5,16(a5)
   125c4:	faf43c23          	sd	a5,-72(s0)
   125c8:	fb843703          	ld	a4,-72(s0)
   125cc:	fb043783          	ld	a5,-80(s0)
   125d0:	04f71163          	bne	a4,a5,12612 <_malloc_r+0x5c8>
   125d4:	00004797          	auipc	a5,0x4
   125d8:	d3c78793          	addi	a5,a5,-708 # 16310 <__malloc_av_>
   125dc:	6794                	ld	a3,8(a5)
   125de:	f9442783          	lw	a5,-108(s0)
   125e2:	41f7d71b          	sraiw	a4,a5,0x1f
   125e6:	01e7571b          	srliw	a4,a4,0x1e
   125ea:	9fb9                	addw	a5,a5,a4
   125ec:	4027d79b          	sraiw	a5,a5,0x2
   125f0:	2781                	sext.w	a5,a5
   125f2:	873e                	mv	a4,a5
   125f4:	4785                	li	a5,1
   125f6:	00e79733          	sll	a4,a5,a4
   125fa:	00004797          	auipc	a5,0x4
   125fe:	d1678793          	addi	a5,a5,-746 # 16310 <__malloc_av_>
   12602:	8f55                	or	a4,a4,a3
   12604:	e798                	sd	a4,8(a5)
   12606:	a80d                	j	12638 <_malloc_r+0x5ee>
   12608:	fb843783          	ld	a5,-72(s0)
   1260c:	6b9c                	ld	a5,16(a5)
   1260e:	faf43c23          	sd	a5,-72(s0)
   12612:	fb843703          	ld	a4,-72(s0)
   12616:	fb043783          	ld	a5,-80(s0)
   1261a:	00f70a63          	beq	a4,a5,1262e <_malloc_r+0x5e4>
   1261e:	fb843783          	ld	a5,-72(s0)
   12622:	679c                	ld	a5,8(a5)
   12624:	9bf1                	andi	a5,a5,-4
   12626:	f9843703          	ld	a4,-104(s0)
   1262a:	fcf76fe3          	bltu	a4,a5,12608 <_malloc_r+0x5be>
   1262e:	fb843783          	ld	a5,-72(s0)
   12632:	6f9c                	ld	a5,24(a5)
   12634:	faf43823          	sd	a5,-80(s0)
   12638:	fe843783          	ld	a5,-24(s0)
   1263c:	fb043703          	ld	a4,-80(s0)
   12640:	ef98                	sd	a4,24(a5)
   12642:	fe843783          	ld	a5,-24(s0)
   12646:	fb843703          	ld	a4,-72(s0)
   1264a:	eb98                	sd	a4,16(a5)
   1264c:	fb043783          	ld	a5,-80(s0)
   12650:	fe843703          	ld	a4,-24(s0)
   12654:	eb98                	sd	a4,16(a5)
   12656:	fb043783          	ld	a5,-80(s0)
   1265a:	6b98                	ld	a4,16(a5)
   1265c:	fb843783          	ld	a5,-72(s0)
   12660:	ef98                	sd	a4,24(a5)
   12662:	fe442783          	lw	a5,-28(s0)
   12666:	41f7d71b          	sraiw	a4,a5,0x1f
   1266a:	01e7571b          	srliw	a4,a4,0x1e
   1266e:	9fb9                	addw	a5,a5,a4
   12670:	4027d79b          	sraiw	a5,a5,0x2
   12674:	2781                	sext.w	a5,a5
   12676:	873e                	mv	a4,a5
   12678:	4785                	li	a5,1
   1267a:	00e797b3          	sll	a5,a5,a4
   1267e:	fcf43423          	sd	a5,-56(s0)
   12682:	00004797          	auipc	a5,0x4
   12686:	c8e78793          	addi	a5,a5,-882 # 16310 <__malloc_av_>
   1268a:	679c                	ld	a5,8(a5)
   1268c:	fc843703          	ld	a4,-56(s0)
   12690:	28e7e663          	bltu	a5,a4,1291c <_malloc_r+0x8d2>
   12694:	00004797          	auipc	a5,0x4
   12698:	c7c78793          	addi	a5,a5,-900 # 16310 <__malloc_av_>
   1269c:	6798                	ld	a4,8(a5)
   1269e:	fc843783          	ld	a5,-56(s0)
   126a2:	8ff9                	and	a5,a5,a4
   126a4:	e3a9                	bnez	a5,126e6 <_malloc_r+0x69c>
   126a6:	fe442783          	lw	a5,-28(s0)
   126aa:	9bf1                	andi	a5,a5,-4
   126ac:	2781                	sext.w	a5,a5
   126ae:	2791                	addiw	a5,a5,4
   126b0:	fef42223          	sw	a5,-28(s0)
   126b4:	fc843783          	ld	a5,-56(s0)
   126b8:	0786                	slli	a5,a5,0x1
   126ba:	fcf43423          	sd	a5,-56(s0)
   126be:	a819                	j	126d4 <_malloc_r+0x68a>
   126c0:	fe442783          	lw	a5,-28(s0)
   126c4:	2791                	addiw	a5,a5,4
   126c6:	fef42223          	sw	a5,-28(s0)
   126ca:	fc843783          	ld	a5,-56(s0)
   126ce:	0786                	slli	a5,a5,0x1
   126d0:	fcf43423          	sd	a5,-56(s0)
   126d4:	00004797          	auipc	a5,0x4
   126d8:	c3c78793          	addi	a5,a5,-964 # 16310 <__malloc_av_>
   126dc:	6798                	ld	a4,8(a5)
   126de:	fc843783          	ld	a5,-56(s0)
   126e2:	8ff9                	and	a5,a5,a4
   126e4:	dff1                	beqz	a5,126c0 <_malloc_r+0x676>
   126e6:	fe442783          	lw	a5,-28(s0)
   126ea:	fcf42223          	sw	a5,-60(s0)
   126ee:	fe442783          	lw	a5,-28(s0)
   126f2:	2785                	addiw	a5,a5,1
   126f4:	2781                	sext.w	a5,a5
   126f6:	0017979b          	slliw	a5,a5,0x1
   126fa:	2781                	sext.w	a5,a5
   126fc:	00379713          	slli	a4,a5,0x3
   12700:	00004797          	auipc	a5,0x4
   12704:	c1078793          	addi	a5,a5,-1008 # 16310 <__malloc_av_>
   12708:	97ba                	add	a5,a5,a4
   1270a:	17c1                	addi	a5,a5,-16
   1270c:	fcf43c23          	sd	a5,-40(s0)
   12710:	fd843783          	ld	a5,-40(s0)
   12714:	faf43423          	sd	a5,-88(s0)
   12718:	fd843783          	ld	a5,-40(s0)
   1271c:	6f9c                	ld	a5,24(a5)
   1271e:	fef43423          	sd	a5,-24(s0)
   12722:	aa1d                	j	12858 <_malloc_r+0x80e>
   12724:	fe843783          	ld	a5,-24(s0)
   12728:	679c                	ld	a5,8(a5)
   1272a:	9bf1                	andi	a5,a5,-4
   1272c:	f8f43c23          	sd	a5,-104(s0)
   12730:	f9843703          	ld	a4,-104(s0)
   12734:	fa043783          	ld	a5,-96(s0)
   12738:	40f707b3          	sub	a5,a4,a5
   1273c:	fcf43823          	sd	a5,-48(s0)
   12740:	fd043703          	ld	a4,-48(s0)
   12744:	47fd                	li	a5,31
   12746:	0ae7d663          	bge	a5,a4,127f2 <_malloc_r+0x7a8>
   1274a:	fe843703          	ld	a4,-24(s0)
   1274e:	fa043783          	ld	a5,-96(s0)
   12752:	97ba                	add	a5,a5,a4
   12754:	f8f43423          	sd	a5,-120(s0)
   12758:	fa043783          	ld	a5,-96(s0)
   1275c:	0017e713          	ori	a4,a5,1
   12760:	fe843783          	ld	a5,-24(s0)
   12764:	e798                	sd	a4,8(a5)
   12766:	fe843783          	ld	a5,-24(s0)
   1276a:	6f9c                	ld	a5,24(a5)
   1276c:	faf43823          	sd	a5,-80(s0)
   12770:	fe843783          	ld	a5,-24(s0)
   12774:	6b9c                	ld	a5,16(a5)
   12776:	faf43c23          	sd	a5,-72(s0)
   1277a:	fb843783          	ld	a5,-72(s0)
   1277e:	fb043703          	ld	a4,-80(s0)
   12782:	ef98                	sd	a4,24(a5)
   12784:	fb043783          	ld	a5,-80(s0)
   12788:	fb843703          	ld	a4,-72(s0)
   1278c:	eb98                	sd	a4,16(a5)
   1278e:	00004797          	auipc	a5,0x4
   12792:	b9278793          	addi	a5,a5,-1134 # 16320 <__malloc_av_+0x10>
   12796:	f8843703          	ld	a4,-120(s0)
   1279a:	ef98                	sd	a4,24(a5)
   1279c:	00004717          	auipc	a4,0x4
   127a0:	b8470713          	addi	a4,a4,-1148 # 16320 <__malloc_av_+0x10>
   127a4:	6f9c                	ld	a5,24(a5)
   127a6:	eb1c                	sd	a5,16(a4)
   127a8:	00004717          	auipc	a4,0x4
   127ac:	b7870713          	addi	a4,a4,-1160 # 16320 <__malloc_av_+0x10>
   127b0:	f8843783          	ld	a5,-120(s0)
   127b4:	ef98                	sd	a4,24(a5)
   127b6:	f8843783          	ld	a5,-120(s0)
   127ba:	6f98                	ld	a4,24(a5)
   127bc:	f8843783          	ld	a5,-120(s0)
   127c0:	eb98                	sd	a4,16(a5)
   127c2:	fd043783          	ld	a5,-48(s0)
   127c6:	0017e793          	ori	a5,a5,1
   127ca:	873e                	mv	a4,a5
   127cc:	f8843783          	ld	a5,-120(s0)
   127d0:	e798                	sd	a4,8(a5)
   127d2:	fd043783          	ld	a5,-48(s0)
   127d6:	f8843703          	ld	a4,-120(s0)
   127da:	97ba                	add	a5,a5,a4
   127dc:	fd043703          	ld	a4,-48(s0)
   127e0:	e398                	sd	a4,0(a5)
   127e2:	f7843503          	ld	a0,-136(s0)
   127e6:	234000ef          	jal	12a1a <__malloc_unlock>
   127ea:	fe843783          	ld	a5,-24(s0)
   127ee:	07c1                	addi	a5,a5,16
   127f0:	a439                	j	129fe <_malloc_r+0x9b4>
   127f2:	fd043783          	ld	a5,-48(s0)
   127f6:	0407cc63          	bltz	a5,1284e <_malloc_r+0x804>
   127fa:	fe843703          	ld	a4,-24(s0)
   127fe:	f9843783          	ld	a5,-104(s0)
   12802:	97ba                	add	a5,a5,a4
   12804:	6798                	ld	a4,8(a5)
   12806:	fe843683          	ld	a3,-24(s0)
   1280a:	f9843783          	ld	a5,-104(s0)
   1280e:	97b6                	add	a5,a5,a3
   12810:	00176713          	ori	a4,a4,1
   12814:	e798                	sd	a4,8(a5)
   12816:	fe843783          	ld	a5,-24(s0)
   1281a:	6f9c                	ld	a5,24(a5)
   1281c:	faf43823          	sd	a5,-80(s0)
   12820:	fe843783          	ld	a5,-24(s0)
   12824:	6b9c                	ld	a5,16(a5)
   12826:	faf43c23          	sd	a5,-72(s0)
   1282a:	fb843783          	ld	a5,-72(s0)
   1282e:	fb043703          	ld	a4,-80(s0)
   12832:	ef98                	sd	a4,24(a5)
   12834:	fb043783          	ld	a5,-80(s0)
   12838:	fb843703          	ld	a4,-72(s0)
   1283c:	eb98                	sd	a4,16(a5)
   1283e:	f7843503          	ld	a0,-136(s0)
   12842:	1d8000ef          	jal	12a1a <__malloc_unlock>
   12846:	fe843783          	ld	a5,-24(s0)
   1284a:	07c1                	addi	a5,a5,16
   1284c:	aa4d                	j	129fe <_malloc_r+0x9b4>
   1284e:	fe843783          	ld	a5,-24(s0)
   12852:	6f9c                	ld	a5,24(a5)
   12854:	fef43423          	sd	a5,-24(s0)
   12858:	fe843703          	ld	a4,-24(s0)
   1285c:	fd843783          	ld	a5,-40(s0)
   12860:	ecf712e3          	bne	a4,a5,12724 <_malloc_r+0x6da>
   12864:	fd843783          	ld	a5,-40(s0)
   12868:	07c1                	addi	a5,a5,16
   1286a:	fcf43c23          	sd	a5,-40(s0)
   1286e:	fe442783          	lw	a5,-28(s0)
   12872:	2785                	addiw	a5,a5,1
   12874:	fef42223          	sw	a5,-28(s0)
   12878:	fe442783          	lw	a5,-28(s0)
   1287c:	8b8d                	andi	a5,a5,3
   1287e:	2781                	sext.w	a5,a5
   12880:	e8079ce3          	bnez	a5,12718 <_malloc_r+0x6ce>
   12884:	fc442783          	lw	a5,-60(s0)
   12888:	8b8d                	andi	a5,a5,3
   1288a:	2781                	sext.w	a5,a5
   1288c:	e38d                	bnez	a5,128ae <_malloc_r+0x864>
   1288e:	00004797          	auipc	a5,0x4
   12892:	a8278793          	addi	a5,a5,-1406 # 16310 <__malloc_av_>
   12896:	6794                	ld	a3,8(a5)
   12898:	fc843783          	ld	a5,-56(s0)
   1289c:	fff7c713          	not	a4,a5
   128a0:	00004797          	auipc	a5,0x4
   128a4:	a7078793          	addi	a5,a5,-1424 # 16310 <__malloc_av_>
   128a8:	8f75                	and	a4,a4,a3
   128aa:	e798                	sd	a4,8(a5)
   128ac:	a015                	j	128d0 <_malloc_r+0x886>
   128ae:	fc442783          	lw	a5,-60(s0)
   128b2:	37fd                	addiw	a5,a5,-1
   128b4:	fcf42223          	sw	a5,-60(s0)
   128b8:	fa843783          	ld	a5,-88(s0)
   128bc:	17c1                	addi	a5,a5,-16
   128be:	faf43423          	sd	a5,-88(s0)
   128c2:	fa843783          	ld	a5,-88(s0)
   128c6:	6b9c                	ld	a5,16(a5)
   128c8:	fa843703          	ld	a4,-88(s0)
   128cc:	faf70ce3          	beq	a4,a5,12884 <_malloc_r+0x83a>
   128d0:	fc843783          	ld	a5,-56(s0)
   128d4:	0786                	slli	a5,a5,0x1
   128d6:	fcf43423          	sd	a5,-56(s0)
   128da:	00004797          	auipc	a5,0x4
   128de:	a3678793          	addi	a5,a5,-1482 # 16310 <__malloc_av_>
   128e2:	679c                	ld	a5,8(a5)
   128e4:	fc843703          	ld	a4,-56(s0)
   128e8:	02e7ea63          	bltu	a5,a4,1291c <_malloc_r+0x8d2>
   128ec:	fc843783          	ld	a5,-56(s0)
   128f0:	c795                	beqz	a5,1291c <_malloc_r+0x8d2>
   128f2:	a819                	j	12908 <_malloc_r+0x8be>
   128f4:	fe442783          	lw	a5,-28(s0)
   128f8:	2791                	addiw	a5,a5,4
   128fa:	fef42223          	sw	a5,-28(s0)
   128fe:	fc843783          	ld	a5,-56(s0)
   12902:	0786                	slli	a5,a5,0x1
   12904:	fcf43423          	sd	a5,-56(s0)
   12908:	00004797          	auipc	a5,0x4
   1290c:	a0878793          	addi	a5,a5,-1528 # 16310 <__malloc_av_>
   12910:	6798                	ld	a4,8(a5)
   12912:	fc843783          	ld	a5,-56(s0)
   12916:	8ff9                	and	a5,a5,a4
   12918:	dff1                	beqz	a5,128f4 <_malloc_r+0x8aa>
   1291a:	b3f1                	j	126e6 <_malloc_r+0x69c>
   1291c:	00004797          	auipc	a5,0x4
   12920:	9f478793          	addi	a5,a5,-1548 # 16310 <__malloc_av_>
   12924:	6b9c                	ld	a5,16(a5)
   12926:	679c                	ld	a5,8(a5)
   12928:	ffc7f713          	andi	a4,a5,-4
   1292c:	fa043783          	ld	a5,-96(s0)
   12930:	40f707b3          	sub	a5,a4,a5
   12934:	fcf43823          	sd	a5,-48(s0)
   12938:	00004797          	auipc	a5,0x4
   1293c:	9d878793          	addi	a5,a5,-1576 # 16310 <__malloc_av_>
   12940:	6b9c                	ld	a5,16(a5)
   12942:	679c                	ld	a5,8(a5)
   12944:	9bf1                	andi	a5,a5,-4
   12946:	fa043703          	ld	a4,-96(s0)
   1294a:	00e7e763          	bltu	a5,a4,12958 <_malloc_r+0x90e>
   1294e:	fd043703          	ld	a4,-48(s0)
   12952:	47fd                	li	a5,31
   12954:	04e7cc63          	blt	a5,a4,129ac <_malloc_r+0x962>
   12958:	fa043583          	ld	a1,-96(s0)
   1295c:	f7843503          	ld	a0,-136(s0)
   12960:	bbcff0ef          	jal	11d1c <malloc_extend_top>
   12964:	00004797          	auipc	a5,0x4
   12968:	9ac78793          	addi	a5,a5,-1620 # 16310 <__malloc_av_>
   1296c:	6b9c                	ld	a5,16(a5)
   1296e:	679c                	ld	a5,8(a5)
   12970:	ffc7f713          	andi	a4,a5,-4
   12974:	fa043783          	ld	a5,-96(s0)
   12978:	40f707b3          	sub	a5,a4,a5
   1297c:	fcf43823          	sd	a5,-48(s0)
   12980:	00004797          	auipc	a5,0x4
   12984:	99078793          	addi	a5,a5,-1648 # 16310 <__malloc_av_>
   12988:	6b9c                	ld	a5,16(a5)
   1298a:	679c                	ld	a5,8(a5)
   1298c:	9bf1                	andi	a5,a5,-4
   1298e:	fa043703          	ld	a4,-96(s0)
   12992:	00e7e763          	bltu	a5,a4,129a0 <_malloc_r+0x956>
   12996:	fd043703          	ld	a4,-48(s0)
   1299a:	47fd                	li	a5,31
   1299c:	00e7c863          	blt	a5,a4,129ac <_malloc_r+0x962>
   129a0:	f7843503          	ld	a0,-136(s0)
   129a4:	076000ef          	jal	12a1a <__malloc_unlock>
   129a8:	4781                	li	a5,0
   129aa:	a891                	j	129fe <_malloc_r+0x9b4>
   129ac:	00004797          	auipc	a5,0x4
   129b0:	96478793          	addi	a5,a5,-1692 # 16310 <__malloc_av_>
   129b4:	6b9c                	ld	a5,16(a5)
   129b6:	fef43423          	sd	a5,-24(s0)
   129ba:	fa043783          	ld	a5,-96(s0)
   129be:	0017e713          	ori	a4,a5,1
   129c2:	fe843783          	ld	a5,-24(s0)
   129c6:	e798                	sd	a4,8(a5)
   129c8:	00004797          	auipc	a5,0x4
   129cc:	94878793          	addi	a5,a5,-1720 # 16310 <__malloc_av_>
   129d0:	fe843683          	ld	a3,-24(s0)
   129d4:	fa043703          	ld	a4,-96(s0)
   129d8:	9736                	add	a4,a4,a3
   129da:	eb98                	sd	a4,16(a5)
   129dc:	fd043783          	ld	a5,-48(s0)
   129e0:	0017e713          	ori	a4,a5,1
   129e4:	00004797          	auipc	a5,0x4
   129e8:	92c78793          	addi	a5,a5,-1748 # 16310 <__malloc_av_>
   129ec:	6b9c                	ld	a5,16(a5)
   129ee:	e798                	sd	a4,8(a5)
   129f0:	f7843503          	ld	a0,-136(s0)
   129f4:	026000ef          	jal	12a1a <__malloc_unlock>
   129f8:	fe843783          	ld	a5,-24(s0)
   129fc:	07c1                	addi	a5,a5,16
   129fe:	853e                	mv	a0,a5
   12a00:	60aa                	ld	ra,136(sp)
   12a02:	640a                	ld	s0,128(sp)
   12a04:	6149                	addi	sp,sp,144
   12a06:	8082                	ret

0000000000012a08 <__malloc_lock>:
#endif

void
__malloc_lock (ptr)
     struct _reent *ptr;
{
   12a08:	1101                	addi	sp,sp,-32
   12a0a:	ec22                	sd	s0,24(sp)
   12a0c:	1000                	addi	s0,sp,32
   12a0e:	fea43423          	sd	a0,-24(s0)
#ifndef __SINGLE_THREAD__
  __lock_acquire_recursive (__malloc_recursive_mutex);
#endif
}
   12a12:	0001                	nop
   12a14:	6462                	ld	s0,24(sp)
   12a16:	6105                	addi	sp,sp,32
   12a18:	8082                	ret

0000000000012a1a <__malloc_unlock>:

void
__malloc_unlock (ptr)
     struct _reent *ptr;
{
   12a1a:	1101                	addi	sp,sp,-32
   12a1c:	ec22                	sd	s0,24(sp)
   12a1e:	1000                	addi	s0,sp,32
   12a20:	fea43423          	sd	a0,-24(s0)
#ifndef __SINGLE_THREAD__
  __lock_release_recursive (__malloc_recursive_mutex);
#endif
}
   12a24:	0001                	nop
   12a26:	6462                	ld	s0,24(sp)
   12a28:	6105                	addi	sp,sp,32
   12a2a:	8082                	ret

0000000000012a2c <vfiscanf>:

int
VFSCANF (register FILE *fp,
       const char *fmt,
       va_list ap)
{
   12a2c:	7139                	addi	sp,sp,-64
   12a2e:	fc06                	sd	ra,56(sp)
   12a30:	f822                	sd	s0,48(sp)
   12a32:	f426                	sd	s1,40(sp)
   12a34:	0080                	addi	s0,sp,64
   12a36:	84aa                	mv	s1,a0
   12a38:	fcb43423          	sd	a1,-56(s0)
   12a3c:	fcc43023          	sd	a2,-64(s0)
  CHECK_INIT(_REENT, fp);
   12a40:	00004797          	auipc	a5,0x4
   12a44:	28878793          	addi	a5,a5,648 # 16cc8 <_impure_ptr>
   12a48:	639c                	ld	a5,0(a5)
   12a4a:	fcf43c23          	sd	a5,-40(s0)
   12a4e:	fd843783          	ld	a5,-40(s0)
   12a52:	cb89                	beqz	a5,12a64 <vfiscanf+0x38>
   12a54:	fd843783          	ld	a5,-40(s0)
   12a58:	63bc                	ld	a5,64(a5)
   12a5a:	e789                	bnez	a5,12a64 <vfiscanf+0x38>
   12a5c:	fd843503          	ld	a0,-40(s0)
   12a60:	d63fd0ef          	jal	107c2 <__sinit>
  return __SVFSCANF_R (_REENT, fp, fmt, ap);
   12a64:	00004797          	auipc	a5,0x4
   12a68:	26478793          	addi	a5,a5,612 # 16cc8 <_impure_ptr>
   12a6c:	639c                	ld	a5,0(a5)
   12a6e:	fc043683          	ld	a3,-64(s0)
   12a72:	fc843603          	ld	a2,-56(s0)
   12a76:	85a6                	mv	a1,s1
   12a78:	853e                	mv	a0,a5
   12a7a:	0a0000ef          	jal	12b1a <__svfiscanf_r>
   12a7e:	87aa                	mv	a5,a0
}
   12a80:	853e                	mv	a0,a5
   12a82:	70e2                	ld	ra,56(sp)
   12a84:	7442                	ld	s0,48(sp)
   12a86:	74a2                	ld	s1,40(sp)
   12a88:	6121                	addi	sp,sp,64
   12a8a:	8082                	ret

0000000000012a8c <__svfscanf>:

int
__SVFSCANF (register FILE *fp,
       char const *fmt0,
       va_list ap)
{
   12a8c:	1101                	addi	sp,sp,-32
   12a8e:	ec06                	sd	ra,24(sp)
   12a90:	e822                	sd	s0,16(sp)
   12a92:	1000                	addi	s0,sp,32
   12a94:	872a                	mv	a4,a0
   12a96:	feb43423          	sd	a1,-24(s0)
   12a9a:	fec43023          	sd	a2,-32(s0)
  return __SVFSCANF_R (_REENT, fp, fmt0, ap);
   12a9e:	00004797          	auipc	a5,0x4
   12aa2:	22a78793          	addi	a5,a5,554 # 16cc8 <_impure_ptr>
   12aa6:	639c                	ld	a5,0(a5)
   12aa8:	fe043683          	ld	a3,-32(s0)
   12aac:	fe843603          	ld	a2,-24(s0)
   12ab0:	85ba                	mv	a1,a4
   12ab2:	853e                	mv	a0,a5
   12ab4:	066000ef          	jal	12b1a <__svfiscanf_r>
   12ab8:	87aa                	mv	a5,a0
}
   12aba:	853e                	mv	a0,a5
   12abc:	60e2                	ld	ra,24(sp)
   12abe:	6442                	ld	s0,16(sp)
   12ac0:	6105                	addi	sp,sp,32
   12ac2:	8082                	ret

0000000000012ac4 <_vfiscanf_r>:
int
_VFSCANF_R (struct _reent *data,
       register FILE *fp,
       const char *fmt,
       va_list ap)
{
   12ac4:	715d                	addi	sp,sp,-80
   12ac6:	e486                	sd	ra,72(sp)
   12ac8:	e0a2                	sd	s0,64(sp)
   12aca:	fc26                	sd	s1,56(sp)
   12acc:	0880                	addi	s0,sp,80
   12ace:	fca43423          	sd	a0,-56(s0)
   12ad2:	84ae                	mv	s1,a1
   12ad4:	fcc43023          	sd	a2,-64(s0)
   12ad8:	fad43c23          	sd	a3,-72(s0)
  CHECK_INIT(data, fp);
   12adc:	fc843783          	ld	a5,-56(s0)
   12ae0:	fcf43c23          	sd	a5,-40(s0)
   12ae4:	fd843783          	ld	a5,-40(s0)
   12ae8:	cb89                	beqz	a5,12afa <_vfiscanf_r+0x36>
   12aea:	fd843783          	ld	a5,-40(s0)
   12aee:	63bc                	ld	a5,64(a5)
   12af0:	e789                	bnez	a5,12afa <_vfiscanf_r+0x36>
   12af2:	fd843503          	ld	a0,-40(s0)
   12af6:	ccdfd0ef          	jal	107c2 <__sinit>
  return __SVFSCANF_R (data, fp, fmt, ap);
   12afa:	fb843683          	ld	a3,-72(s0)
   12afe:	fc043603          	ld	a2,-64(s0)
   12b02:	85a6                	mv	a1,s1
   12b04:	fc843503          	ld	a0,-56(s0)
   12b08:	012000ef          	jal	12b1a <__svfiscanf_r>
   12b0c:	87aa                	mv	a5,a0
}
   12b0e:	853e                	mv	a0,a5
   12b10:	60a6                	ld	ra,72(sp)
   12b12:	6406                	ld	s0,64(sp)
   12b14:	74e2                	ld	s1,56(sp)
   12b16:	6161                	addi	sp,sp,80
   12b18:	8082                	ret

0000000000012b1a <__svfiscanf_r>:
int
__SVFSCANF_R (struct _reent *rptr,
       register FILE *fp,
       char const *fmt0,
       va_list ap)
{
   12b1a:	7145                	addi	sp,sp,-464
   12b1c:	e786                	sd	ra,456(sp)
   12b1e:	e3a2                	sd	s0,448(sp)
   12b20:	ff26                	sd	s1,440(sp)
   12b22:	fb4a                	sd	s2,432(sp)
   12b24:	f74e                	sd	s3,424(sp)
   12b26:	0b80                	addi	s0,sp,464
   12b28:	e4a43423          	sd	a0,-440(s0)
   12b2c:	84ae                	mv	s1,a1
   12b2e:	e4c43023          	sd	a2,-448(s0)
   12b32:	e2d43c23          	sd	a3,-456(s0)
  register u_char *fmt = (u_char *) fmt0;
   12b36:	e4043903          	ld	s2,-448(s0)
  struct _scan_data_t scan_data;
  int (*scan_func)(struct _reent*, struct _scan_data_t*, FILE *, va_list *);

  _newlib_flockfile_start (fp);

  scan_data.nassigned = 0;
   12b3a:	e6042423          	sw	zero,-408(s0)
  scan_data.nread = 0;
   12b3e:	e6042623          	sw	zero,-404(s0)
  scan_data.ccltab = ccltab;
   12b42:	ec040793          	addi	a5,s0,-320
   12b46:	e6f43823          	sd	a5,-400(s0)
  scan_data.pfn_ungetc = _ungetc_r;
   12b4a:	00001797          	auipc	a5,0x1
   12b4e:	4c678793          	addi	a5,a5,1222 # 14010 <_ungetc_r>
   12b52:	eaf43423          	sd	a5,-344(s0)
  scan_data.pfn_refill = __srefill_r;
   12b56:	00001797          	auipc	a5,0x1
   12b5a:	11278793          	addi	a5,a5,274 # 13c68 <__srefill_r>
   12b5e:	eaf43823          	sd	a5,-336(s0)

  /* GCC PR 14577 at https://gcc.gnu.org/bugzilla/show_bug.cgi?id=14557 */
  va_copy (ap_copy, ap);
   12b62:	e3843783          	ld	a5,-456(s0)
   12b66:	eaf43c23          	sd	a5,-328(s0)

  for (;;)
    {
      if (*fmt == 0)
   12b6a:	00094783          	lbu	a5,0(s2)
   12b6e:	40078263          	beqz	a5,12f72 <__svfiscanf_r+0x458>
	goto all_done;

      if (isspace (*fmt))
   12b72:	00094783          	lbu	a5,0(s2)
   12b76:	00178713          	addi	a4,a5,1
   12b7a:	ffffd797          	auipc	a5,0xffffd
   12b7e:	64678793          	addi	a5,a5,1606 # 101c0 <_ctype_>
   12b82:	97ba                	add	a5,a5,a4
   12b84:	0007c783          	lbu	a5,0(a5)
   12b88:	2781                	sext.w	a5,a5
   12b8a:	8ba1                	andi	a5,a5,8
   12b8c:	2781                	sext.w	a5,a5
   12b8e:	cfa1                	beqz	a5,12be6 <__svfiscanf_r+0xcc>
	{
	  while ((fp->_r > 0 || !scan_data.pfn_refill(rptr, fp))
   12b90:	a831                	j	12bac <__svfiscanf_r+0x92>
		 && isspace (*fp->_p))
	    {
	      scan_data.nread++;
   12b92:	e6c42783          	lw	a5,-404(s0)
   12b96:	2785                	addiw	a5,a5,1
   12b98:	2781                	sext.w	a5,a5
   12b9a:	e6f42623          	sw	a5,-404(s0)
	      fp->_r--;
   12b9e:	449c                	lw	a5,8(s1)
   12ba0:	37fd                	addiw	a5,a5,-1
   12ba2:	2781                	sext.w	a5,a5
   12ba4:	c49c                	sw	a5,8(s1)
	      fp->_p++;
   12ba6:	609c                	ld	a5,0(s1)
   12ba8:	0785                	addi	a5,a5,1
   12baa:	e09c                	sd	a5,0(s1)
	  while ((fp->_r > 0 || !scan_data.pfn_refill(rptr, fp))
   12bac:	449c                	lw	a5,8(s1)
		 && isspace (*fp->_p))
   12bae:	00f04a63          	bgtz	a5,12bc2 <__svfiscanf_r+0xa8>
	  while ((fp->_r > 0 || !scan_data.pfn_refill(rptr, fp))
   12bb2:	eb043783          	ld	a5,-336(s0)
   12bb6:	85a6                	mv	a1,s1
   12bb8:	e4843503          	ld	a0,-440(s0)
   12bbc:	9782                	jalr	a5
   12bbe:	87aa                	mv	a5,a0
   12bc0:	e38d                	bnez	a5,12be2 <__svfiscanf_r+0xc8>
		 && isspace (*fp->_p))
   12bc2:	609c                	ld	a5,0(s1)
   12bc4:	0007c783          	lbu	a5,0(a5)
   12bc8:	00178713          	addi	a4,a5,1
   12bcc:	ffffd797          	auipc	a5,0xffffd
   12bd0:	5f478793          	addi	a5,a5,1524 # 101c0 <_ctype_>
   12bd4:	97ba                	add	a5,a5,a4
   12bd6:	0007c783          	lbu	a5,0(a5)
   12bda:	2781                	sext.w	a5,a5
   12bdc:	8ba1                	andi	a5,a5,8
   12bde:	2781                	sext.w	a5,a5
   12be0:	fbcd                	bnez	a5,12b92 <__svfiscanf_r+0x78>
	    }
	  fmt++;
   12be2:	0905                	addi	s2,s2,1
	  continue;
   12be4:	aeb1                	j	12f40 <__svfiscanf_r+0x426>
	}
      if ((c = *fmt++) != '%')
   12be6:	87ca                	mv	a5,s2
   12be8:	00178913          	addi	s2,a5,1
   12bec:	0007c783          	lbu	a5,0(a5)
   12bf0:	0007899b          	sext.w	s3,a5
   12bf4:	874e                	mv	a4,s3
   12bf6:	02500793          	li	a5,37
   12bfa:	10f71463          	bne	a4,a5,12d02 <__svfiscanf_r+0x1e8>
	goto literal;

      scan_data.width = 0;
   12bfe:	e6043023          	sd	zero,-416(s0)
      scan_data.flags = 0;
   12c02:	e4042c23          	sw	zero,-424(s0)

      if (*fmt == '*')
   12c06:	00094783          	lbu	a5,0(s2)
   12c0a:	873e                	mv	a4,a5
   12c0c:	02a00793          	li	a5,42
   12c10:	02f71c63          	bne	a4,a5,12c48 <__svfiscanf_r+0x12e>
	{
	  scan_data.flags |= SUPPRESS;
   12c14:	e5842783          	lw	a5,-424(s0)
   12c18:	0107e793          	ori	a5,a5,16
   12c1c:	2781                	sext.w	a5,a5
   12c1e:	e4f42c23          	sw	a5,-424(s0)
	  fmt++;
   12c22:	0905                	addi	s2,s2,1
	}

      for (; is_digit (*fmt); fmt++)
   12c24:	a015                	j	12c48 <__svfiscanf_r+0x12e>
	scan_data.width = 10 * scan_data.width + to_digit (*fmt);
   12c26:	e6043703          	ld	a4,-416(s0)
   12c2a:	87ba                	mv	a5,a4
   12c2c:	078a                	slli	a5,a5,0x2
   12c2e:	97ba                	add	a5,a5,a4
   12c30:	0786                	slli	a5,a5,0x1
   12c32:	873e                	mv	a4,a5
   12c34:	00094783          	lbu	a5,0(s2)
   12c38:	2781                	sext.w	a5,a5
   12c3a:	fd07879b          	addiw	a5,a5,-48
   12c3e:	2781                	sext.w	a5,a5
   12c40:	97ba                	add	a5,a5,a4
   12c42:	e6f43023          	sd	a5,-416(s0)
      for (; is_digit (*fmt); fmt++)
   12c46:	0905                	addi	s2,s2,1
   12c48:	00094783          	lbu	a5,0(s2)
   12c4c:	2781                	sext.w	a5,a5
   12c4e:	fd07879b          	addiw	a5,a5,-48
   12c52:	2781                	sext.w	a5,a5
   12c54:	2781                	sext.w	a5,a5
   12c56:	873e                	mv	a4,a5
   12c58:	47a5                	li	a5,9
   12c5a:	fce7f6e3          	bgeu	a5,a4,12c26 <__svfiscanf_r+0x10c>

      /* The length modifiers.  */
      p = "hlL";
   12c5e:	ffffd997          	auipc	s3,0xffffd
   12c62:	3ca98993          	addi	s3,s3,970 # 10028 <__fini_array_end+0x28>
      if ((cp = memchr (p, *fmt, 3)) != NULL) {
   12c66:	00094783          	lbu	a5,0(s2)
   12c6a:	2781                	sext.w	a5,a5
   12c6c:	460d                	li	a2,3
   12c6e:	85be                	mv	a1,a5
   12c70:	854e                	mv	a0,s3
   12c72:	55a010ef          	jal	141cc <memchr>
   12c76:	fca43023          	sd	a0,-64(s0)
   12c7a:	fc043783          	ld	a5,-64(s0)
   12c7e:	c38d                	beqz	a5,12ca0 <__svfiscanf_r+0x186>
	scan_data.flags |= (SHORT << (cp - p));
   12c80:	e5842703          	lw	a4,-424(s0)
   12c84:	fc043783          	ld	a5,-64(s0)
   12c88:	413787b3          	sub	a5,a5,s3
   12c8c:	2781                	sext.w	a5,a5
   12c8e:	4685                	li	a3,1
   12c90:	00f697bb          	sllw	a5,a3,a5
   12c94:	2781                	sext.w	a5,a5
   12c96:	8fd9                	or	a5,a5,a4
   12c98:	2781                	sext.w	a5,a5
   12c9a:	e4f42c23          	sw	a5,-424(s0)
	fmt++;
   12c9e:	0905                	addi	s2,s2,1
      }

      /* Switch on the format.  continue if done; break once format
	 type is derived.  */
      c = *fmt++;
   12ca0:	87ca                	mv	a5,s2
   12ca2:	00178913          	addi	s2,a5,1
   12ca6:	0007c783          	lbu	a5,0(a5)
   12caa:	0007899b          	sext.w	s3,a5
      switch (c)
   12cae:	18098a63          	beqz	s3,12e42 <__svfiscanf_r+0x328>
   12cb2:	87ce                	mv	a5,s3
   12cb4:	1807c963          	bltz	a5,12e46 <__svfiscanf_r+0x32c>
   12cb8:	874e                	mv	a4,s3
   12cba:	07800793          	li	a5,120
   12cbe:	18e7c463          	blt	a5,a4,12e46 <__svfiscanf_r+0x32c>
   12cc2:	874e                	mv	a4,s3
   12cc4:	02500793          	li	a5,37
   12cc8:	16f74f63          	blt	a4,a5,12e46 <__svfiscanf_r+0x32c>
   12ccc:	fdb9869b          	addiw	a3,s3,-37
   12cd0:	0006871b          	sext.w	a4,a3
   12cd4:	05300793          	li	a5,83
   12cd8:	16e7e763          	bltu	a5,a4,12e46 <__svfiscanf_r+0x32c>
   12cdc:	02069793          	slli	a5,a3,0x20
   12ce0:	9381                	srli	a5,a5,0x20
   12ce2:	00279713          	slli	a4,a5,0x2
   12ce6:	ffffd797          	auipc	a5,0xffffd
   12cea:	34678793          	addi	a5,a5,838 # 1002c <__fini_array_end+0x2c>
   12cee:	97ba                	add	a5,a5,a4
   12cf0:	439c                	lw	a5,0(a5)
   12cf2:	0007871b          	sext.w	a4,a5
   12cf6:	ffffd797          	auipc	a5,0xffffd
   12cfa:	33678793          	addi	a5,a5,822 # 1002c <__fini_array_end+0x2c>
   12cfe:	97ba                	add	a5,a5,a4
   12d00:	8782                	jr	a5
	goto literal;
   12d02:	0001                	nop
	{
	case '%':
	literal:
	  if ((fp->_r <= 0 && scan_data.pfn_refill(rptr, fp)))
   12d04:	449c                	lw	a5,8(s1)
   12d06:	00f04b63          	bgtz	a5,12d1c <__svfiscanf_r+0x202>
   12d0a:	eb043783          	ld	a5,-336(s0)
   12d0e:	85a6                	mv	a1,s1
   12d10:	e4843503          	ld	a0,-440(s0)
   12d14:	9782                	jalr	a5
   12d16:	87aa                	mv	a5,a0
   12d18:	22079563          	bnez	a5,12f42 <__svfiscanf_r+0x428>
	    goto input_failure;
	  if (*fp->_p != c)
   12d1c:	609c                	ld	a5,0(s1)
   12d1e:	0007c783          	lbu	a5,0(a5)
   12d22:	2781                	sext.w	a5,a5
   12d24:	874e                	mv	a4,s3
   12d26:	24f71863          	bne	a4,a5,12f76 <__svfiscanf_r+0x45c>
	    goto match_failure;
	  fp->_r--, fp->_p++;
   12d2a:	449c                	lw	a5,8(s1)
   12d2c:	37fd                	addiw	a5,a5,-1
   12d2e:	2781                	sext.w	a5,a5
   12d30:	c49c                	sw	a5,8(s1)
   12d32:	609c                	ld	a5,0(s1)
   12d34:	0785                	addi	a5,a5,1
   12d36:	e09c                	sd	a5,0(s1)
	  scan_data.nread++;
   12d38:	e6c42783          	lw	a5,-404(s0)
   12d3c:	2785                	addiw	a5,a5,1
   12d3e:	2781                	sext.w	a5,a5
   12d40:	e6f42623          	sw	a5,-404(s0)
	  continue;
   12d44:	aaf5                	j	12f40 <__svfiscanf_r+0x426>

	case 'p':
	  scan_data.flags |= POINTER;
   12d46:	e5842783          	lw	a5,-424(s0)
   12d4a:	0207e793          	ori	a5,a5,32
   12d4e:	2781                	sext.w	a5,a5
   12d50:	e4f42c23          	sw	a5,-424(s0)
	case 'x':
	case 'X':
	  scan_data.flags |= PFXOK;
   12d54:	e5842783          	lw	a5,-424(s0)
   12d58:	2007e793          	ori	a5,a5,512
   12d5c:	2781                	sext.w	a5,a5
   12d5e:	e4f42c23          	sw	a5,-424(s0)
	  scan_data.base = 16;
   12d62:	47c1                	li	a5,16
   12d64:	e4f42e23          	sw	a5,-420(s0)
	  goto number;
   12d68:	a819                	j	12d7e <__svfiscanf_r+0x264>
	case 'd':
	case 'u':
	  scan_data.base = 10;
   12d6a:	47a9                	li	a5,10
   12d6c:	e4f42e23          	sw	a5,-420(s0)
	  goto number;
   12d70:	a039                	j	12d7e <__svfiscanf_r+0x264>
	case 'i':
	  scan_data.base = 0;
   12d72:	e4042e23          	sw	zero,-420(s0)
	  goto number;
   12d76:	a021                	j	12d7e <__svfiscanf_r+0x264>
	case 'o':
	  scan_data.base = 8;
   12d78:	47a1                	li	a5,8
   12d7a:	e4f42e23          	sw	a5,-420(s0)
	number:
	  scan_data.code = (c < 'o') ? CT_INT : CT_UINT;
   12d7e:	874e                	mv	a4,s3
   12d80:	06e00793          	li	a5,110
   12d84:	00e7c463          	blt	a5,a4,12d8c <__svfiscanf_r+0x272>
   12d88:	478d                	li	a5,3
   12d8a:	a011                	j	12d8e <__svfiscanf_r+0x274>
   12d8c:	4791                	li	a5,4
   12d8e:	e6f42c23          	sw	a5,-392(s0)
	  break;
   12d92:	a0c9                	j	12e54 <__svfiscanf_r+0x33a>

	case '[':
	  fmt = (u_char *) __sccl (ccltab, (unsigned char *) fmt);
   12d94:	ec040793          	addi	a5,s0,-320
   12d98:	85ca                	mv	a1,s2
   12d9a:	853e                	mv	a0,a5
   12d9c:	0a8010ef          	jal	13e44 <__sccl>
   12da0:	892a                	mv	s2,a0
	  scan_data.flags |= NOSKIP;
   12da2:	e5842783          	lw	a5,-424(s0)
   12da6:	0407e793          	ori	a5,a5,64
   12daa:	2781                	sext.w	a5,a5
   12dac:	e4f42c23          	sw	a5,-424(s0)
	  scan_data.code = CT_CCL;
   12db0:	4785                	li	a5,1
   12db2:	e6f42c23          	sw	a5,-392(s0)
	  break;
   12db6:	a879                	j	12e54 <__svfiscanf_r+0x33a>
	case 'c':
	  scan_data.flags |= NOSKIP;
   12db8:	e5842783          	lw	a5,-424(s0)
   12dbc:	0407e793          	ori	a5,a5,64
   12dc0:	2781                	sext.w	a5,a5
   12dc2:	e4f42c23          	sw	a5,-424(s0)
	  scan_data.code = CT_CHAR;
   12dc6:	e6042c23          	sw	zero,-392(s0)
	  break;
   12dca:	a069                	j	12e54 <__svfiscanf_r+0x33a>
	case 's':
	  scan_data.code = CT_STRING;
   12dcc:	4789                	li	a5,2
   12dce:	e6f42c23          	sw	a5,-392(s0)
	  break;
   12dd2:	a049                	j	12e54 <__svfiscanf_r+0x33a>

	case 'n':
	  if (scan_data.flags & SUPPRESS)	/* ???  */
   12dd4:	e5842783          	lw	a5,-424(s0)
   12dd8:	8bc1                	andi	a5,a5,16
   12dda:	2781                	sext.w	a5,a5
   12ddc:	16079163          	bnez	a5,12f3e <__svfiscanf_r+0x424>
	    continue;

	  if (scan_data.flags & SHORT)
   12de0:	e5842783          	lw	a5,-424(s0)
   12de4:	8b85                	andi	a5,a5,1
   12de6:	2781                	sext.w	a5,a5
   12de8:	c38d                	beqz	a5,12e0a <__svfiscanf_r+0x2f0>
	    *GET_ARG (N, ap_copy, short *) = scan_data.nread;
   12dea:	e6c42683          	lw	a3,-404(s0)
   12dee:	eb843783          	ld	a5,-328(s0)
   12df2:	00878713          	addi	a4,a5,8
   12df6:	eae43c23          	sd	a4,-328(s0)
   12dfa:	639c                	ld	a5,0(a5)
   12dfc:	0106971b          	slliw	a4,a3,0x10
   12e00:	4107571b          	sraiw	a4,a4,0x10
   12e04:	00e79023          	sh	a4,0(a5)
	  else if (scan_data.flags & LONG)
	    *GET_ARG (N, ap_copy, long *) = scan_data.nread;
	  else
	    *GET_ARG (N, ap_copy, int *) = scan_data.nread;

	  continue;
   12e08:	aa25                	j	12f40 <__svfiscanf_r+0x426>
	  else if (scan_data.flags & LONG)
   12e0a:	e5842783          	lw	a5,-424(s0)
   12e0e:	8b89                	andi	a5,a5,2
   12e10:	2781                	sext.w	a5,a5
   12e12:	cf89                	beqz	a5,12e2c <__svfiscanf_r+0x312>
	    *GET_ARG (N, ap_copy, long *) = scan_data.nread;
   12e14:	e6c42683          	lw	a3,-404(s0)
   12e18:	eb843783          	ld	a5,-328(s0)
   12e1c:	00878713          	addi	a4,a5,8
   12e20:	eae43c23          	sd	a4,-328(s0)
   12e24:	639c                	ld	a5,0(a5)
   12e26:	8736                	mv	a4,a3
   12e28:	e398                	sd	a4,0(a5)
	  continue;
   12e2a:	aa19                	j	12f40 <__svfiscanf_r+0x426>
	    *GET_ARG (N, ap_copy, int *) = scan_data.nread;
   12e2c:	eb843783          	ld	a5,-328(s0)
   12e30:	00878713          	addi	a4,a5,8
   12e34:	eae43c23          	sd	a4,-328(s0)
   12e38:	639c                	ld	a5,0(a5)
   12e3a:	e6c42703          	lw	a4,-404(s0)
   12e3e:	c398                	sw	a4,0(a5)
	  continue;
   12e40:	a201                	j	12f40 <__svfiscanf_r+0x426>

	/* Disgusting backwards compatibility hacks.	XXX.  */
	case '\0':		/* compat.  */
	  _newlib_flockfile_exit (fp);
	  va_end (ap_copy);
	  return EOF;
   12e42:	57fd                	li	a5,-1
   12e44:	aa35                	j	12f80 <__svfiscanf_r+0x466>
	case 'g': case 'G':
	  scan_data.code = CT_FLOAT;
	  break;
#endif
	default:		/* compat.  */
	  scan_data.code = CT_INT;
   12e46:	478d                	li	a5,3
   12e48:	e6f42c23          	sw	a5,-392(s0)
	  scan_data.base = 10;
   12e4c:	47a9                	li	a5,10
   12e4e:	e4f42e23          	sw	a5,-420(s0)
	  break;
   12e52:	0001                	nop
	}

      /* We have a conversion that requires input.  */
      if ((fp->_r <= 0 && scan_data.pfn_refill (rptr, fp)))
   12e54:	449c                	lw	a5,8(s1)
   12e56:	00f04a63          	bgtz	a5,12e6a <__svfiscanf_r+0x350>
   12e5a:	eb043783          	ld	a5,-336(s0)
   12e5e:	85a6                	mv	a1,s1
   12e60:	e4843503          	ld	a0,-440(s0)
   12e64:	9782                	jalr	a5
   12e66:	87aa                	mv	a5,a0
   12e68:	eff9                	bnez	a5,12f46 <__svfiscanf_r+0x42c>
	goto input_failure;

      /* Consume leading white space, except for formats that
	 suppress this.  */
      if ((scan_data.flags & NOSKIP) == 0)
   12e6a:	e5842783          	lw	a5,-424(s0)
   12e6e:	0407f793          	andi	a5,a5,64
   12e72:	2781                	sext.w	a5,a5
   12e74:	ebb9                	bnez	a5,12eca <__svfiscanf_r+0x3b0>
	{
	  while (isspace (*fp->_p))
   12e76:	a815                	j	12eaa <__svfiscanf_r+0x390>
	    {
	      scan_data.nread++;
   12e78:	e6c42783          	lw	a5,-404(s0)
   12e7c:	2785                	addiw	a5,a5,1
   12e7e:	2781                	sext.w	a5,a5
   12e80:	e6f42623          	sw	a5,-404(s0)
	      if (--fp->_r > 0)
   12e84:	449c                	lw	a5,8(s1)
   12e86:	37fd                	addiw	a5,a5,-1
   12e88:	2781                	sext.w	a5,a5
   12e8a:	c49c                	sw	a5,8(s1)
   12e8c:	449c                	lw	a5,8(s1)
   12e8e:	00f05663          	blez	a5,12e9a <__svfiscanf_r+0x380>
		fp->_p++;
   12e92:	609c                	ld	a5,0(s1)
   12e94:	0785                	addi	a5,a5,1
   12e96:	e09c                	sd	a5,0(s1)
   12e98:	a809                	j	12eaa <__svfiscanf_r+0x390>
	      else if (scan_data.pfn_refill (rptr, fp))
   12e9a:	eb043783          	ld	a5,-336(s0)
   12e9e:	85a6                	mv	a1,s1
   12ea0:	e4843503          	ld	a0,-440(s0)
   12ea4:	9782                	jalr	a5
   12ea6:	87aa                	mv	a5,a0
   12ea8:	e3cd                	bnez	a5,12f4a <__svfiscanf_r+0x430>
	  while (isspace (*fp->_p))
   12eaa:	609c                	ld	a5,0(s1)
   12eac:	0007c783          	lbu	a5,0(a5)
   12eb0:	00178713          	addi	a4,a5,1
   12eb4:	ffffd797          	auipc	a5,0xffffd
   12eb8:	30c78793          	addi	a5,a5,780 # 101c0 <_ctype_>
   12ebc:	97ba                	add	a5,a5,a4
   12ebe:	0007c783          	lbu	a5,0(a5)
   12ec2:	2781                	sext.w	a5,a5
   12ec4:	8ba1                	andi	a5,a5,8
   12ec6:	2781                	sext.w	a5,a5
   12ec8:	fbc5                	bnez	a5,12e78 <__svfiscanf_r+0x35e>
	    }
	  /* Note that there is at least one character in the
	     buffer, so conversions that do not set NOSKIP ca
	     no longer result in an input failure.  */
	}
      ret = 0;
   12eca:	fc042623          	sw	zero,-52(s0)
      if (scan_data.code < CT_INT)
   12ece:	e7842783          	lw	a5,-392(s0)
   12ed2:	873e                	mv	a4,a5
   12ed4:	4789                	li	a5,2
   12ed6:	02e7c163          	blt	a5,a4,12ef8 <__svfiscanf_r+0x3de>
	ret = _scanf_chars (rptr, &scan_data, fp, &ap_copy);
   12eda:	eb840713          	addi	a4,s0,-328
   12ede:	e5840793          	addi	a5,s0,-424
   12ee2:	86ba                	mv	a3,a4
   12ee4:	8626                	mv	a2,s1
   12ee6:	85be                	mv	a1,a5
   12ee8:	e4843503          	ld	a0,-440(s0)
   12eec:	0a4000ef          	jal	12f90 <_scanf_chars>
   12ef0:	87aa                	mv	a5,a0
   12ef2:	fcf42623          	sw	a5,-52(s0)
   12ef6:	a02d                	j	12f20 <__svfiscanf_r+0x406>
      else if (scan_data.code < CT_FLOAT)
   12ef8:	e7842783          	lw	a5,-392(s0)
   12efc:	873e                	mv	a4,a5
   12efe:	4791                	li	a5,4
   12f00:	02e7c063          	blt	a5,a4,12f20 <__svfiscanf_r+0x406>
	ret = _scanf_i (rptr, &scan_data, fp, &ap_copy);
   12f04:	eb840713          	addi	a4,s0,-328
   12f08:	e5840793          	addi	a5,s0,-424
   12f0c:	86ba                	mv	a3,a4
   12f0e:	8626                	mv	a2,s1
   12f10:	85be                	mv	a1,a5
   12f12:	e4843503          	ld	a0,-440(s0)
   12f16:	230000ef          	jal	13146 <_scanf_i>
   12f1a:	87aa                	mv	a5,a0
   12f1c:	fcf42623          	sw	a5,-52(s0)
#ifdef FLOATING_POINT
      else if (_scanf_float)
	ret = _scanf_float (rptr, &scan_data, fp, &ap_copy);
#endif

      if (ret == MATCH_FAILURE)
   12f20:	fcc42783          	lw	a5,-52(s0)
   12f24:	0007871b          	sext.w	a4,a5
   12f28:	4785                	li	a5,1
   12f2a:	04f70863          	beq	a4,a5,12f7a <__svfiscanf_r+0x460>
	goto match_failure;
      else if (ret == INPUT_FAILURE)
   12f2e:	fcc42783          	lw	a5,-52(s0)
   12f32:	0007871b          	sext.w	a4,a5
   12f36:	4789                	li	a5,2
   12f38:	00f70b63          	beq	a4,a5,12f4e <__svfiscanf_r+0x434>
   12f3c:	b13d                	j	12b6a <__svfiscanf_r+0x50>
	    continue;
   12f3e:	0001                	nop
      if (*fmt == 0)
   12f40:	b12d                	j	12b6a <__svfiscanf_r+0x50>
	    goto input_failure;
   12f42:	0001                	nop
   12f44:	a031                	j	12f50 <__svfiscanf_r+0x436>
	goto input_failure;
   12f46:	0001                	nop
   12f48:	a021                	j	12f50 <__svfiscanf_r+0x436>
		goto input_failure;
   12f4a:	0001                	nop
   12f4c:	a011                	j	12f50 <__svfiscanf_r+0x436>
	goto input_failure;
   12f4e:	0001                	nop
     should have been set prior to here.  On EOF failure (including
     invalid format string), return EOF if no matches yet, else number
     of matches made prior to failure.  */
  _newlib_flockfile_exit (fp);
  va_end (ap_copy);
  return scan_data.nassigned && !(fp->_flags & __SERR) ? scan_data.nassigned
   12f50:	e6842783          	lw	a5,-408(s0)
						       : EOF;
   12f54:	cf89                	beqz	a5,12f6e <__svfiscanf_r+0x454>
  return scan_data.nassigned && !(fp->_flags & __SERR) ? scan_data.nassigned
   12f56:	01049783          	lh	a5,16(s1)
   12f5a:	17c2                	slli	a5,a5,0x30
   12f5c:	93c1                	srli	a5,a5,0x30
   12f5e:	2781                	sext.w	a5,a5
   12f60:	0407f793          	andi	a5,a5,64
   12f64:	2781                	sext.w	a5,a5
   12f66:	e781                	bnez	a5,12f6e <__svfiscanf_r+0x454>
						       : EOF;
   12f68:	e6842783          	lw	a5,-408(s0)
   12f6c:	a811                	j	12f80 <__svfiscanf_r+0x466>
   12f6e:	57fd                	li	a5,-1
   12f70:	a801                	j	12f80 <__svfiscanf_r+0x466>
	goto all_done;
   12f72:	0001                	nop
   12f74:	a021                	j	12f7c <__svfiscanf_r+0x462>
	    goto match_failure;
   12f76:	0001                	nop
   12f78:	a011                	j	12f7c <__svfiscanf_r+0x462>
	goto match_failure;
   12f7a:	0001                	nop
match_failure:
all_done:
  /* Return number of matches, which can be 0 on match failure.  */
  _newlib_flockfile_end (fp);
  va_end (ap_copy);
  return scan_data.nassigned;
   12f7c:	e6842783          	lw	a5,-408(s0)
}
   12f80:	853e                	mv	a0,a5
   12f82:	60be                	ld	ra,456(sp)
   12f84:	641e                	ld	s0,448(sp)
   12f86:	74fa                	ld	s1,440(sp)
   12f88:	795a                	ld	s2,432(sp)
   12f8a:	79ba                	ld	s3,424(sp)
   12f8c:	6179                	addi	sp,sp,464
   12f8e:	8082                	ret

0000000000012f90 <_scanf_chars>:

int
_scanf_chars (struct _reent *rptr,
	      struct _scan_data_t *pdata,
	      FILE *fp, va_list *ap)
{
   12f90:	7139                	addi	sp,sp,-64
   12f92:	fc06                	sd	ra,56(sp)
   12f94:	f822                	sd	s0,48(sp)
   12f96:	0080                	addi	s0,sp,64
   12f98:	fca43c23          	sd	a0,-40(s0)
   12f9c:	fcb43823          	sd	a1,-48(s0)
   12fa0:	fcc43423          	sd	a2,-56(s0)
   12fa4:	fcd43023          	sd	a3,-64(s0)
  int n;
  char *p;

  if (pdata->width == 0)
   12fa8:	fd043783          	ld	a5,-48(s0)
   12fac:	679c                	ld	a5,8(a5)
   12fae:	eb99                	bnez	a5,12fc4 <_scanf_chars+0x34>
    pdata->width = (pdata->code == CT_CHAR) ? 1 : (size_t)~0;
   12fb0:	fd043783          	ld	a5,-48(s0)
   12fb4:	539c                	lw	a5,32(a5)
   12fb6:	e399                	bnez	a5,12fbc <_scanf_chars+0x2c>
   12fb8:	4785                	li	a5,1
   12fba:	a011                	j	12fbe <_scanf_chars+0x2e>
   12fbc:	57fd                	li	a5,-1
   12fbe:	fd043703          	ld	a4,-48(s0)
   12fc2:	e71c                	sd	a5,8(a4)

  n = 0;
   12fc4:	fe042623          	sw	zero,-20(s0)
  if ((pdata->flags & SUPPRESS) == 0)
   12fc8:	fd043783          	ld	a5,-48(s0)
   12fcc:	439c                	lw	a5,0(a5)
   12fce:	8bc1                	andi	a5,a5,16
   12fd0:	2781                	sext.w	a5,a5
   12fd2:	e3cd                	bnez	a5,13074 <_scanf_chars+0xe4>
    p = GET_ARG (N, *ap, char *);
   12fd4:	fc043783          	ld	a5,-64(s0)
   12fd8:	639c                	ld	a5,0(a5)
   12fda:	00878693          	addi	a3,a5,8
   12fde:	fc043703          	ld	a4,-64(s0)
   12fe2:	e314                	sd	a3,0(a4)
   12fe4:	639c                	ld	a5,0(a5)
   12fe6:	fef43023          	sd	a5,-32(s0)

  /* It's impossible to have EOF when we get here.  */
  while ((pdata->code == CT_CHAR)
   12fea:	a069                	j	13074 <_scanf_chars+0xe4>
	 || (pdata->code == CT_CCL && pdata->ccltab[*fp->_p])
	 || (pdata->code == CT_STRING && !isspace (*fp->_p)))
    {
      n++;
   12fec:	fec42783          	lw	a5,-20(s0)
   12ff0:	2785                	addiw	a5,a5,1
   12ff2:	fef42623          	sw	a5,-20(s0)
      if ((pdata->flags & SUPPRESS) == 0)
   12ff6:	fd043783          	ld	a5,-48(s0)
   12ffa:	439c                	lw	a5,0(a5)
   12ffc:	8bc1                	andi	a5,a5,16
   12ffe:	2781                	sext.w	a5,a5
   13000:	ef91                	bnez	a5,1301c <_scanf_chars+0x8c>
	*p++ = *fp->_p;
   13002:	fc843783          	ld	a5,-56(s0)
   13006:	6398                	ld	a4,0(a5)
   13008:	fe043783          	ld	a5,-32(s0)
   1300c:	00178693          	addi	a3,a5,1
   13010:	fed43023          	sd	a3,-32(s0)
   13014:	00074703          	lbu	a4,0(a4)
   13018:	00e78023          	sb	a4,0(a5)
	
      fp->_r--, fp->_p++;
   1301c:	fc843783          	ld	a5,-56(s0)
   13020:	479c                	lw	a5,8(a5)
   13022:	37fd                	addiw	a5,a5,-1
   13024:	0007871b          	sext.w	a4,a5
   13028:	fc843783          	ld	a5,-56(s0)
   1302c:	c798                	sw	a4,8(a5)
   1302e:	fc843783          	ld	a5,-56(s0)
   13032:	639c                	ld	a5,0(a5)
   13034:	00178713          	addi	a4,a5,1
   13038:	fc843783          	ld	a5,-56(s0)
   1303c:	e398                	sd	a4,0(a5)
      if (--pdata->width == 0)
   1303e:	fd043783          	ld	a5,-48(s0)
   13042:	679c                	ld	a5,8(a5)
   13044:	fff78713          	addi	a4,a5,-1
   13048:	fd043783          	ld	a5,-48(s0)
   1304c:	e798                	sd	a4,8(a5)
   1304e:	fd043783          	ld	a5,-48(s0)
   13052:	679c                	ld	a5,8(a5)
   13054:	c3c9                	beqz	a5,130d6 <_scanf_chars+0x146>
	break;

      if ((fp->_r <= 0 && pdata->pfn_refill (rptr, fp)))
   13056:	fc843783          	ld	a5,-56(s0)
   1305a:	479c                	lw	a5,8(a5)
   1305c:	00f04c63          	bgtz	a5,13074 <_scanf_chars+0xe4>
   13060:	fd043783          	ld	a5,-48(s0)
   13064:	6fbc                	ld	a5,88(a5)
   13066:	fc843583          	ld	a1,-56(s0)
   1306a:	fd843503          	ld	a0,-40(s0)
   1306e:	9782                	jalr	a5
   13070:	87aa                	mv	a5,a0
   13072:	e7a5                	bnez	a5,130da <_scanf_chars+0x14a>
  while ((pdata->code == CT_CHAR)
   13074:	fd043783          	ld	a5,-48(s0)
   13078:	539c                	lw	a5,32(a5)
	 || (pdata->code == CT_STRING && !isspace (*fp->_p)))
   1307a:	dbad                	beqz	a5,12fec <_scanf_chars+0x5c>
	 || (pdata->code == CT_CCL && pdata->ccltab[*fp->_p])
   1307c:	fd043783          	ld	a5,-48(s0)
   13080:	539c                	lw	a5,32(a5)
   13082:	873e                	mv	a4,a5
   13084:	4785                	li	a5,1
   13086:	00f71e63          	bne	a4,a5,130a2 <_scanf_chars+0x112>
   1308a:	fd043783          	ld	a5,-48(s0)
   1308e:	6f9c                	ld	a5,24(a5)
   13090:	fc843703          	ld	a4,-56(s0)
   13094:	6318                	ld	a4,0(a4)
   13096:	00074703          	lbu	a4,0(a4)
   1309a:	97ba                	add	a5,a5,a4
   1309c:	0007c783          	lbu	a5,0(a5)
   130a0:	f7b1                	bnez	a5,12fec <_scanf_chars+0x5c>
	 || (pdata->code == CT_STRING && !isspace (*fp->_p)))
   130a2:	fd043783          	ld	a5,-48(s0)
   130a6:	539c                	lw	a5,32(a5)
   130a8:	873e                	mv	a4,a5
   130aa:	4789                	li	a5,2
   130ac:	02f71863          	bne	a4,a5,130dc <_scanf_chars+0x14c>
   130b0:	fc843783          	ld	a5,-56(s0)
   130b4:	639c                	ld	a5,0(a5)
   130b6:	0007c783          	lbu	a5,0(a5)
   130ba:	00178713          	addi	a4,a5,1
   130be:	ffffd797          	auipc	a5,0xffffd
   130c2:	10278793          	addi	a5,a5,258 # 101c0 <_ctype_>
   130c6:	97ba                	add	a5,a5,a4
   130c8:	0007c783          	lbu	a5,0(a5)
   130cc:	2781                	sext.w	a5,a5
   130ce:	8ba1                	andi	a5,a5,8
   130d0:	2781                	sext.w	a5,a5
   130d2:	df89                	beqz	a5,12fec <_scanf_chars+0x5c>
   130d4:	a021                	j	130dc <_scanf_chars+0x14c>
	break;
   130d6:	0001                	nop
   130d8:	a011                	j	130dc <_scanf_chars+0x14c>
	break;
   130da:	0001                	nop
    }
  /* For CT_CHAR, it is impossible to have input_failure(n == 0) here.
     For CT_CCL, it is impossible to have input_failure here.
     For CT_STRING, it is possible to have empty string.  */
  if (n == 0 && pdata->code == CT_CCL)
   130dc:	fec42783          	lw	a5,-20(s0)
   130e0:	2781                	sext.w	a5,a5
   130e2:	eb91                	bnez	a5,130f6 <_scanf_chars+0x166>
   130e4:	fd043783          	ld	a5,-48(s0)
   130e8:	539c                	lw	a5,32(a5)
   130ea:	873e                	mv	a4,a5
   130ec:	4785                	li	a5,1
   130ee:	00f71463          	bne	a4,a5,130f6 <_scanf_chars+0x166>
    return MATCH_FAILURE;
   130f2:	4785                	li	a5,1
   130f4:	a0a1                	j	1313c <_scanf_chars+0x1ac>

  if ((pdata->flags & SUPPRESS) == 0)
   130f6:	fd043783          	ld	a5,-48(s0)
   130fa:	439c                	lw	a5,0(a5)
   130fc:	8bc1                	andi	a5,a5,16
   130fe:	2781                	sext.w	a5,a5
   13100:	e395                	bnez	a5,13124 <_scanf_chars+0x194>
    {
      pdata->nassigned++;
   13102:	fd043783          	ld	a5,-48(s0)
   13106:	4b9c                	lw	a5,16(a5)
   13108:	2785                	addiw	a5,a5,1
   1310a:	0007871b          	sext.w	a4,a5
   1310e:	fd043783          	ld	a5,-48(s0)
   13112:	cb98                	sw	a4,16(a5)
      if (pdata->code != CT_CHAR)
   13114:	fd043783          	ld	a5,-48(s0)
   13118:	539c                	lw	a5,32(a5)
   1311a:	c789                	beqz	a5,13124 <_scanf_chars+0x194>
	*p = 0;
   1311c:	fe043783          	ld	a5,-32(s0)
   13120:	00078023          	sb	zero,0(a5)
    }
  pdata->nread += n;
   13124:	fd043783          	ld	a5,-48(s0)
   13128:	4bdc                	lw	a5,20(a5)
   1312a:	fec42703          	lw	a4,-20(s0)
   1312e:	9fb9                	addw	a5,a5,a4
   13130:	0007871b          	sext.w	a4,a5
   13134:	fd043783          	ld	a5,-48(s0)
   13138:	cbd8                	sw	a4,20(a5)
  return 0;
   1313a:	4781                	li	a5,0
}
   1313c:	853e                	mv	a0,a5
   1313e:	70e2                	ld	ra,56(sp)
   13140:	7442                	ld	s0,48(sp)
   13142:	6121                	addi	sp,sp,64
   13144:	8082                	ret

0000000000013146 <_scanf_i>:
int
_scanf_i (struct _reent *rptr,
	  struct _scan_data_t *pdata,
	  FILE *fp, va_list *ap)
{
   13146:	7119                	addi	sp,sp,-128
   13148:	fc86                	sd	ra,120(sp)
   1314a:	f8a2                	sd	s0,112(sp)
   1314c:	0100                	addi	s0,sp,128
   1314e:	f8a43c23          	sd	a0,-104(s0)
   13152:	f8b43823          	sd	a1,-112(s0)
   13156:	f8c43423          	sd	a2,-120(s0)
   1315a:	f8d43023          	sd	a3,-128(s0)
#define CCFN_PARAMS	(struct _reent *, const char *, char **, int)
  /* Conversion function (strtol/strtoul).  */
  u_long (*ccfn)CCFN_PARAMS=0;
   1315e:	fc043823          	sd	zero,-48(s0)
  char *p;
  int n;
  char *xdigits = "A-Fa-f8901234567]";
   13162:	ffffd797          	auipc	a5,0xffffd
   13166:	01e78793          	addi	a5,a5,30 # 10180 <__fini_array_end+0x180>
   1316a:	fcf43423          	sd	a5,-56(s0)
  char *prefix_chars[3] = {"+-", "00", "xX"};
   1316e:	ffffd797          	auipc	a5,0xffffd
   13172:	02a78793          	addi	a5,a5,42 # 10198 <__fini_array_end+0x198>
   13176:	faf43423          	sd	a5,-88(s0)
   1317a:	ffffd797          	auipc	a5,0xffffd
   1317e:	02678793          	addi	a5,a5,38 # 101a0 <__fini_array_end+0x1a0>
   13182:	faf43823          	sd	a5,-80(s0)
   13186:	ffffd797          	auipc	a5,0xffffd
   1318a:	02278793          	addi	a5,a5,34 # 101a8 <__fini_array_end+0x1a8>
   1318e:	faf43c23          	sd	a5,-72(s0)

  /* Scan an integer as if by strtol/strtoul.  */
  unsigned width_left = 0;
   13192:	fe042023          	sw	zero,-32(s0)
  int skips = 0;
   13196:	fc042e23          	sw	zero,-36(s0)

  ccfn = (pdata->code == CT_INT) ? (u_long (*)CCFN_PARAMS)_strtol_r : _strtoul_r;
   1319a:	f9043783          	ld	a5,-112(s0)
   1319e:	539c                	lw	a5,32(a5)
   131a0:	873e                	mv	a4,a5
   131a2:	478d                	li	a5,3
   131a4:	00f71763          	bne	a4,a5,131b2 <_scanf_i+0x6c>
   131a8:	00002797          	auipc	a5,0x2
   131ac:	28478793          	addi	a5,a5,644 # 1542c <_strtol_r>
   131b0:	a029                	j	131ba <_scanf_i+0x74>
   131b2:	00002797          	auipc	a5,0x2
   131b6:	59a78793          	addi	a5,a5,1434 # 1574c <_strtoul_r>
   131ba:	fcf43823          	sd	a5,-48(s0)
#ifdef hardway
  if (pdata->width == 0 || pdata->width > BUF - 1)
#else
  /* size_t is unsigned, hence this optimisation.  */
  if (pdata->width - 1 > BUF - 2)
   131be:	f9043783          	ld	a5,-112(s0)
   131c2:	679c                	ld	a5,8(a5)
   131c4:	fff78713          	addi	a4,a5,-1
   131c8:	02600793          	li	a5,38
   131cc:	00e7ff63          	bgeu	a5,a4,131ea <_scanf_i+0xa4>
#endif
    {
      width_left = pdata->width - (BUF - 1);
   131d0:	f9043783          	ld	a5,-112(s0)
   131d4:	679c                	ld	a5,8(a5)
   131d6:	2781                	sext.w	a5,a5
   131d8:	fd97879b          	addiw	a5,a5,-39
   131dc:	fef42023          	sw	a5,-32(s0)
      pdata->width = BUF - 1;
   131e0:	f9043783          	ld	a5,-112(s0)
   131e4:	02700713          	li	a4,39
   131e8:	e798                	sd	a4,8(a5)
    }
  p = pdata->buf;
   131ea:	f9043783          	ld	a5,-112(s0)
   131ee:	02478793          	addi	a5,a5,36
   131f2:	fef43423          	sd	a5,-24(s0)
  pdata->flags |= NDIGITS | NZDIGITS | NNZDIGITS;
   131f6:	f9043783          	ld	a5,-112(s0)
   131fa:	4398                	lw	a4,0(a5)
   131fc:	6785                	lui	a5,0x1
   131fe:	d0078793          	addi	a5,a5,-768 # d00 <__stack_size+0x900>
   13202:	8fd9                	or	a5,a5,a4
   13204:	0007871b          	sext.w	a4,a5
   13208:	f9043783          	ld	a5,-112(s0)
   1320c:	c398                	sw	a4,0(a5)

  /* Process [sign] [0] [xX] prefixes sequently.  */
  for (n = 0; n < 3; n++)
   1320e:	fe042223          	sw	zero,-28(s0)
   13212:	a235                	j	1333e <_scanf_i+0x1f8>
    {
      if (!memchr (prefix_chars[n], *fp->_p, 2))
   13214:	fe442783          	lw	a5,-28(s0)
   13218:	078e                	slli	a5,a5,0x3
   1321a:	17c1                	addi	a5,a5,-16
   1321c:	97a2                	add	a5,a5,s0
   1321e:	fb87b703          	ld	a4,-72(a5)
   13222:	f8843783          	ld	a5,-120(s0)
   13226:	639c                	ld	a5,0(a5)
   13228:	0007c783          	lbu	a5,0(a5)
   1322c:	2781                	sext.w	a5,a5
   1322e:	4609                	li	a2,2
   13230:	85be                	mv	a1,a5
   13232:	853a                	mv	a0,a4
   13234:	799000ef          	jal	141cc <memchr>
   13238:	87aa                	mv	a5,a0
   1323a:	cbf5                	beqz	a5,1332e <_scanf_i+0x1e8>
	continue;

      if (n == 1)
   1323c:	fe442783          	lw	a5,-28(s0)
   13240:	0007871b          	sext.w	a4,a5
   13244:	4785                	li	a5,1
   13246:	02f71f63          	bne	a4,a5,13284 <_scanf_i+0x13e>
	{
	  if (pdata->base == 0)
   1324a:	f9043783          	ld	a5,-112(s0)
   1324e:	43dc                	lw	a5,4(a5)
   13250:	ef99                	bnez	a5,1326e <_scanf_i+0x128>
	    {
	      pdata->base = 8;
   13252:	f9043783          	ld	a5,-112(s0)
   13256:	4721                	li	a4,8
   13258:	c3d8                	sw	a4,4(a5)
	      pdata->flags |= PFXOK;
   1325a:	f9043783          	ld	a5,-112(s0)
   1325e:	439c                	lw	a5,0(a5)
   13260:	2007e793          	ori	a5,a5,512
   13264:	0007871b          	sext.w	a4,a5
   13268:	f9043783          	ld	a5,-112(s0)
   1326c:	c398                	sw	a4,0(a5)
	    }
	  pdata->flags &= ~(NZDIGITS | NDIGITS);
   1326e:	f9043783          	ld	a5,-112(s0)
   13272:	439c                	lw	a5,0(a5)
   13274:	aff7f793          	andi	a5,a5,-1281
   13278:	0007871b          	sext.w	a4,a5
   1327c:	f9043783          	ld	a5,-112(s0)
   13280:	c398                	sw	a4,0(a5)
   13282:	a089                	j	132c4 <_scanf_i+0x17e>
	}
      else if (n == 2)
   13284:	fe442783          	lw	a5,-28(s0)
   13288:	0007871b          	sext.w	a4,a5
   1328c:	4789                	li	a5,2
   1328e:	02f71b63          	bne	a4,a5,132c4 <_scanf_i+0x17e>
	{
	  if ((pdata->flags & (PFXOK | NZDIGITS)) != PFXOK)
   13292:	f9043783          	ld	a5,-112(s0)
   13296:	439c                	lw	a5,0(a5)
   13298:	6007f793          	andi	a5,a5,1536
   1329c:	2781                	sext.w	a5,a5
   1329e:	873e                	mv	a4,a5
   132a0:	20000793          	li	a5,512
   132a4:	08f71763          	bne	a4,a5,13332 <_scanf_i+0x1ec>
	    continue;
	  pdata->base = 16;
   132a8:	f9043783          	ld	a5,-112(s0)
   132ac:	4741                	li	a4,16
   132ae:	c3d8                	sw	a4,4(a5)
	  /* We must reset the NZDIGITS and NDIGITS
	     flags that would have been unset by seeing
	     the zero that preceded the X or x.

	     ??? It seems unnecessary to reset the NZDIGITS.  */
	  pdata->flags |= NDIGITS;
   132b0:	f9043783          	ld	a5,-112(s0)
   132b4:	439c                	lw	a5,0(a5)
   132b6:	1007e793          	ori	a5,a5,256
   132ba:	0007871b          	sext.w	a4,a5
   132be:	f9043783          	ld	a5,-112(s0)
   132c2:	c398                	sw	a4,0(a5)
	}
      if (pdata->width-- > 0)
   132c4:	f9043783          	ld	a5,-112(s0)
   132c8:	679c                	ld	a5,8(a5)
   132ca:	fff78693          	addi	a3,a5,-1
   132ce:	f9043703          	ld	a4,-112(s0)
   132d2:	e714                	sd	a3,8(a4)
   132d4:	c3a5                	beqz	a5,13334 <_scanf_i+0x1ee>
	{
	  *p++ = *fp->_p++;
   132d6:	f8843783          	ld	a5,-120(s0)
   132da:	6398                	ld	a4,0(a5)
   132dc:	00170693          	addi	a3,a4,1
   132e0:	f8843783          	ld	a5,-120(s0)
   132e4:	e394                	sd	a3,0(a5)
   132e6:	fe843783          	ld	a5,-24(s0)
   132ea:	00178693          	addi	a3,a5,1
   132ee:	fed43423          	sd	a3,-24(s0)
   132f2:	00074703          	lbu	a4,0(a4)
   132f6:	00e78023          	sb	a4,0(a5)
	  fp->_r--;
   132fa:	f8843783          	ld	a5,-120(s0)
   132fe:	479c                	lw	a5,8(a5)
   13300:	37fd                	addiw	a5,a5,-1
   13302:	0007871b          	sext.w	a4,a5
   13306:	f8843783          	ld	a5,-120(s0)
   1330a:	c798                	sw	a4,8(a5)
	  if ((fp->_r <= 0 && pdata->pfn_refill (rptr, fp)))
   1330c:	f8843783          	ld	a5,-120(s0)
   13310:	479c                	lw	a5,8(a5)
   13312:	02f04163          	bgtz	a5,13334 <_scanf_i+0x1ee>
   13316:	f9043783          	ld	a5,-112(s0)
   1331a:	6fbc                	ld	a5,88(a5)
   1331c:	f8843583          	ld	a1,-120(s0)
   13320:	f9843503          	ld	a0,-104(s0)
   13324:	9782                	jalr	a5
   13326:	87aa                	mv	a5,a0
   13328:	14079f63          	bnez	a5,13486 <_scanf_i+0x340>
   1332c:	a021                	j	13334 <_scanf_i+0x1ee>
	continue;
   1332e:	0001                	nop
   13330:	a011                	j	13334 <_scanf_i+0x1ee>
	    continue;
   13332:	0001                	nop
  for (n = 0; n < 3; n++)
   13334:	fe442783          	lw	a5,-28(s0)
   13338:	2785                	addiw	a5,a5,1
   1333a:	fef42223          	sw	a5,-28(s0)
   1333e:	fe442783          	lw	a5,-28(s0)
   13342:	0007871b          	sext.w	a4,a5
   13346:	4789                	li	a5,2
   13348:	ece7d6e3          	bge	a5,a4,13214 <_scanf_i+0xce>
	    goto match_end;
	}
    }

  if (pdata->base == 0)
   1334c:	f9043783          	ld	a5,-112(s0)
   13350:	43dc                	lw	a5,4(a5)
   13352:	e789                	bnez	a5,1335c <_scanf_i+0x216>
    pdata->base = 10;
   13354:	f9043783          	ld	a5,-112(s0)
   13358:	4729                	li	a4,10
   1335a:	c3d8                	sw	a4,4(a5)
  /* The check is un-necessary if xdigits points to exactly the string:
     "A-Fa-f8901234567]".  The code is kept only for reading's sake.  */
#if 0
  if (pdata->base != 16)
#endif
  xdigits = xdigits + 16 - pdata->base;
   1335c:	f9043783          	ld	a5,-112(s0)
   13360:	43dc                	lw	a5,4(a5)
   13362:	873e                	mv	a4,a5
   13364:	47c1                	li	a5,16
   13366:	8f99                	sub	a5,a5,a4
   13368:	fc843703          	ld	a4,-56(s0)
   1336c:	97ba                	add	a5,a5,a4
   1336e:	fcf43423          	sd	a5,-56(s0)

  /* Initilize ccltab according to pdata->base.  */
  __sccl (pdata->ccltab, (unsigned char *) xdigits);
   13372:	f9043783          	ld	a5,-112(s0)
   13376:	6f9c                	ld	a5,24(a5)
   13378:	fc843583          	ld	a1,-56(s0)
   1337c:	853e                	mv	a0,a5
   1337e:	2c7000ef          	jal	13e44 <__sccl>
  for (; pdata->width; pdata->width--)
   13382:	a8ed                	j	1347c <_scanf_i+0x336>
    {
      n = *fp->_p;
   13384:	f8843783          	ld	a5,-120(s0)
   13388:	639c                	ld	a5,0(a5)
   1338a:	0007c783          	lbu	a5,0(a5)
   1338e:	fef42223          	sw	a5,-28(s0)
      if (pdata->ccltab[n] == 0)
   13392:	f9043783          	ld	a5,-112(s0)
   13396:	6f98                	ld	a4,24(a5)
   13398:	fe442783          	lw	a5,-28(s0)
   1339c:	97ba                	add	a5,a5,a4
   1339e:	0007c783          	lbu	a5,0(a5)
   133a2:	c7e5                	beqz	a5,1348a <_scanf_i+0x344>
	break;
      else if (n == '0' && (pdata->flags & NNZDIGITS))
   133a4:	fe442783          	lw	a5,-28(s0)
   133a8:	0007871b          	sext.w	a4,a5
   133ac:	03000793          	li	a5,48
   133b0:	04f71263          	bne	a4,a5,133f4 <_scanf_i+0x2ae>
   133b4:	f9043783          	ld	a5,-112(s0)
   133b8:	4398                	lw	a4,0(a5)
   133ba:	6785                	lui	a5,0x1
   133bc:	80078793          	addi	a5,a5,-2048 # 800 <__stack_size+0x400>
   133c0:	8ff9                	and	a5,a5,a4
   133c2:	2781                	sext.w	a5,a5
   133c4:	cb85                	beqz	a5,133f4 <_scanf_i+0x2ae>
	{
	  ++skips;
   133c6:	fdc42783          	lw	a5,-36(s0)
   133ca:	2785                	addiw	a5,a5,1
   133cc:	fcf42e23          	sw	a5,-36(s0)
	  if (width_left)
   133d0:	fe042783          	lw	a5,-32(s0)
   133d4:	2781                	sext.w	a5,a5
   133d6:	cba9                	beqz	a5,13428 <_scanf_i+0x2e2>
	    {
	      width_left--;
   133d8:	fe042783          	lw	a5,-32(s0)
   133dc:	37fd                	addiw	a5,a5,-1
   133de:	fef42023          	sw	a5,-32(s0)
	      pdata->width++;
   133e2:	f9043783          	ld	a5,-112(s0)
   133e6:	679c                	ld	a5,8(a5)
   133e8:	00178713          	addi	a4,a5,1
   133ec:	f9043783          	ld	a5,-112(s0)
   133f0:	e798                	sd	a4,8(a5)
	    }
	  goto skip;
   133f2:	a81d                	j	13428 <_scanf_i+0x2e2>
	}
      pdata->flags &= ~(NDIGITS | NNZDIGITS);
   133f4:	f9043783          	ld	a5,-112(s0)
   133f8:	4398                	lw	a4,0(a5)
   133fa:	77fd                	lui	a5,0xfffff
   133fc:	6ff78793          	addi	a5,a5,1791 # fffffffffffff6ff <_eheap+0xfffffffffffe626f>
   13400:	8ff9                	and	a5,a5,a4
   13402:	0007871b          	sext.w	a4,a5
   13406:	f9043783          	ld	a5,-112(s0)
   1340a:	c398                	sw	a4,0(a5)
      /* Char is legal: store it and look at the next.  */
      *p++ = *fp->_p;
   1340c:	f8843783          	ld	a5,-120(s0)
   13410:	6398                	ld	a4,0(a5)
   13412:	fe843783          	ld	a5,-24(s0)
   13416:	00178693          	addi	a3,a5,1
   1341a:	fed43423          	sd	a3,-24(s0)
   1341e:	00074703          	lbu	a4,0(a4)
   13422:	00e78023          	sb	a4,0(a5)
   13426:	a011                	j	1342a <_scanf_i+0x2e4>
	  goto skip;
   13428:	0001                	nop
skip:
      if (--fp->_r > 0)
   1342a:	f8843783          	ld	a5,-120(s0)
   1342e:	479c                	lw	a5,8(a5)
   13430:	37fd                	addiw	a5,a5,-1
   13432:	0007871b          	sext.w	a4,a5
   13436:	f8843783          	ld	a5,-120(s0)
   1343a:	c798                	sw	a4,8(a5)
   1343c:	f8843783          	ld	a5,-120(s0)
   13440:	479c                	lw	a5,8(a5)
   13442:	00f05b63          	blez	a5,13458 <_scanf_i+0x312>
	fp->_p++;
   13446:	f8843783          	ld	a5,-120(s0)
   1344a:	639c                	ld	a5,0(a5)
   1344c:	00178713          	addi	a4,a5,1
   13450:	f8843783          	ld	a5,-120(s0)
   13454:	e398                	sd	a4,0(a5)
   13456:	a819                	j	1346c <_scanf_i+0x326>
      else if (pdata->pfn_refill (rptr, fp))
   13458:	f9043783          	ld	a5,-112(s0)
   1345c:	6fbc                	ld	a5,88(a5)
   1345e:	f8843583          	ld	a1,-120(s0)
   13462:	f9843503          	ld	a0,-104(s0)
   13466:	9782                	jalr	a5
   13468:	87aa                	mv	a5,a0
   1346a:	e395                	bnez	a5,1348e <_scanf_i+0x348>
  for (; pdata->width; pdata->width--)
   1346c:	f9043783          	ld	a5,-112(s0)
   13470:	679c                	ld	a5,8(a5)
   13472:	fff78713          	addi	a4,a5,-1
   13476:	f9043783          	ld	a5,-112(s0)
   1347a:	e798                	sd	a4,8(a5)
   1347c:	f9043783          	ld	a5,-112(s0)
   13480:	679c                	ld	a5,8(a5)
   13482:	f389                	bnez	a5,13384 <_scanf_i+0x23e>
     If the number ends in `x', it was [sign] '0' 'x', so push back
     the x and treat it as [sign] '0'.
     Use of ungetc here and below assumes ASCII encoding; we are only
     pushing back 7-bit characters, so casting to unsigned char is
     not necessary.  */
match_end:
   13484:	a031                	j	13490 <_scanf_i+0x34a>
	    goto match_end;
   13486:	0001                	nop
   13488:	a021                	j	13490 <_scanf_i+0x34a>
	break;
   1348a:	0001                	nop
   1348c:	a011                	j	13490 <_scanf_i+0x34a>
	break;
   1348e:	0001                	nop
  if (pdata->flags & NDIGITS)
   13490:	f9043783          	ld	a5,-112(s0)
   13494:	439c                	lw	a5,0(a5)
   13496:	1007f793          	andi	a5,a5,256
   1349a:	2781                	sext.w	a5,a5
   1349c:	c7b1                	beqz	a5,134e8 <_scanf_i+0x3a2>
    {
      if (p > pdata->buf)
   1349e:	f9043783          	ld	a5,-112(s0)
   134a2:	02478793          	addi	a5,a5,36
   134a6:	fe843703          	ld	a4,-24(s0)
   134aa:	02e7f563          	bgeu	a5,a4,134d4 <_scanf_i+0x38e>
	pdata->pfn_ungetc (rptr, *--p, fp); /* "[-+xX]".  */
   134ae:	f9043783          	ld	a5,-112(s0)
   134b2:	6bbc                	ld	a5,80(a5)
   134b4:	fe843703          	ld	a4,-24(s0)
   134b8:	177d                	addi	a4,a4,-1
   134ba:	fee43423          	sd	a4,-24(s0)
   134be:	fe843703          	ld	a4,-24(s0)
   134c2:	00074703          	lbu	a4,0(a4)
   134c6:	2701                	sext.w	a4,a4
   134c8:	f8843603          	ld	a2,-120(s0)
   134cc:	85ba                	mv	a1,a4
   134ce:	f9843503          	ld	a0,-104(s0)
   134d2:	9782                	jalr	a5

      if (p == pdata->buf)
   134d4:	f9043783          	ld	a5,-112(s0)
   134d8:	02478793          	addi	a5,a5,36
   134dc:	fe843703          	ld	a4,-24(s0)
   134e0:	00f71463          	bne	a4,a5,134e8 <_scanf_i+0x3a2>
	return MATCH_FAILURE;
   134e4:	4785                	li	a5,1
   134e6:	aa19                	j	135fc <_scanf_i+0x4b6>
    }
  if ((pdata->flags & SUPPRESS) == 0)
   134e8:	f9043783          	ld	a5,-112(s0)
   134ec:	439c                	lw	a5,0(a5)
   134ee:	8bc1                	andi	a5,a5,16
   134f0:	2781                	sext.w	a5,a5
   134f2:	ebf1                	bnez	a5,135c6 <_scanf_i+0x480>
    {
      u_long ul;
      *p = 0;
   134f4:	fe843783          	ld	a5,-24(s0)
   134f8:	00078023          	sb	zero,0(a5)
      ul = (*ccfn) (rptr, pdata->buf, (char **) NULL, pdata->base);
   134fc:	f9043783          	ld	a5,-112(s0)
   13500:	02478713          	addi	a4,a5,36
   13504:	f9043783          	ld	a5,-112(s0)
   13508:	43d4                	lw	a3,4(a5)
   1350a:	fd043783          	ld	a5,-48(s0)
   1350e:	4601                	li	a2,0
   13510:	85ba                	mv	a1,a4
   13512:	f9843503          	ld	a0,-104(s0)
   13516:	9782                	jalr	a5
   13518:	fca43023          	sd	a0,-64(s0)
      if (pdata->flags & POINTER)
   1351c:	f9043783          	ld	a5,-112(s0)
   13520:	439c                	lw	a5,0(a5)
   13522:	0207f793          	andi	a5,a5,32
   13526:	2781                	sext.w	a5,a5
   13528:	cf91                	beqz	a5,13544 <_scanf_i+0x3fe>
	*GET_ARG (N, *ap, void **) = (void *) (uintptr_t) ul;
   1352a:	f8043783          	ld	a5,-128(s0)
   1352e:	639c                	ld	a5,0(a5)
   13530:	00878693          	addi	a3,a5,8
   13534:	f8043703          	ld	a4,-128(s0)
   13538:	e314                	sd	a3,0(a4)
   1353a:	639c                	ld	a5,0(a5)
   1353c:	fc043703          	ld	a4,-64(s0)
   13540:	e398                	sd	a4,0(a5)
   13542:	a88d                	j	135b4 <_scanf_i+0x46e>
      else if (pdata->flags & SHORT)
   13544:	f9043783          	ld	a5,-112(s0)
   13548:	439c                	lw	a5,0(a5)
   1354a:	8b85                	andi	a5,a5,1
   1354c:	2781                	sext.w	a5,a5
   1354e:	c39d                	beqz	a5,13574 <_scanf_i+0x42e>
	*GET_ARG (N, *ap, short *) = ul;
   13550:	f8043783          	ld	a5,-128(s0)
   13554:	639c                	ld	a5,0(a5)
   13556:	00878693          	addi	a3,a5,8
   1355a:	f8043703          	ld	a4,-128(s0)
   1355e:	e314                	sd	a3,0(a4)
   13560:	639c                	ld	a5,0(a5)
   13562:	fc043703          	ld	a4,-64(s0)
   13566:	0107171b          	slliw	a4,a4,0x10
   1356a:	4107571b          	sraiw	a4,a4,0x10
   1356e:	00e79023          	sh	a4,0(a5)
   13572:	a089                	j	135b4 <_scanf_i+0x46e>
      else if (pdata->flags & LONG)
   13574:	f9043783          	ld	a5,-112(s0)
   13578:	439c                	lw	a5,0(a5)
   1357a:	8b89                	andi	a5,a5,2
   1357c:	2781                	sext.w	a5,a5
   1357e:	cf91                	beqz	a5,1359a <_scanf_i+0x454>
	*GET_ARG (N, *ap, long *) = ul;
   13580:	f8043783          	ld	a5,-128(s0)
   13584:	639c                	ld	a5,0(a5)
   13586:	00878693          	addi	a3,a5,8
   1358a:	f8043703          	ld	a4,-128(s0)
   1358e:	e314                	sd	a3,0(a4)
   13590:	639c                	ld	a5,0(a5)
   13592:	fc043703          	ld	a4,-64(s0)
   13596:	e398                	sd	a4,0(a5)
   13598:	a831                	j	135b4 <_scanf_i+0x46e>
      else
	*GET_ARG (N, *ap, int *) = ul;
   1359a:	f8043783          	ld	a5,-128(s0)
   1359e:	639c                	ld	a5,0(a5)
   135a0:	00878693          	addi	a3,a5,8
   135a4:	f8043703          	ld	a4,-128(s0)
   135a8:	e314                	sd	a3,0(a4)
   135aa:	639c                	ld	a5,0(a5)
   135ac:	fc043703          	ld	a4,-64(s0)
   135b0:	2701                	sext.w	a4,a4
   135b2:	c398                	sw	a4,0(a5)
      
      pdata->nassigned++;
   135b4:	f9043783          	ld	a5,-112(s0)
   135b8:	4b9c                	lw	a5,16(a5)
   135ba:	2785                	addiw	a5,a5,1
   135bc:	0007871b          	sext.w	a4,a5
   135c0:	f9043783          	ld	a5,-112(s0)
   135c4:	cb98                	sw	a4,16(a5)
    }
  pdata->nread += p - pdata->buf + skips;
   135c6:	f9043783          	ld	a5,-112(s0)
   135ca:	4bdc                	lw	a5,20(a5)
   135cc:	0007871b          	sext.w	a4,a5
   135d0:	f9043783          	ld	a5,-112(s0)
   135d4:	02478793          	addi	a5,a5,36
   135d8:	fe843683          	ld	a3,-24(s0)
   135dc:	40f687b3          	sub	a5,a3,a5
   135e0:	0007869b          	sext.w	a3,a5
   135e4:	fdc42783          	lw	a5,-36(s0)
   135e8:	9fb5                	addw	a5,a5,a3
   135ea:	2781                	sext.w	a5,a5
   135ec:	9fb9                	addw	a5,a5,a4
   135ee:	2781                	sext.w	a5,a5
   135f0:	0007871b          	sext.w	a4,a5
   135f4:	f9043783          	ld	a5,-112(s0)
   135f8:	cbd8                	sw	a4,20(a5)
  return 0;
   135fa:	4781                	li	a5,0
}
   135fc:	853e                	mv	a0,a5
   135fe:	70e6                	ld	ra,120(sp)
   13600:	7446                	ld	s0,112(sp)
   13602:	6109                	addi	sp,sp,128
   13604:	8082                	ret

0000000000013606 <_fclose_r>:
#include "local.h"

int
_fclose_r (struct _reent *rptr,
      register FILE * fp)
{
   13606:	7139                	addi	sp,sp,-64
   13608:	fc06                	sd	ra,56(sp)
   1360a:	f822                	sd	s0,48(sp)
   1360c:	f426                	sd	s1,40(sp)
   1360e:	0080                	addi	s0,sp,64
   13610:	fca43423          	sd	a0,-56(s0)
   13614:	84ae                	mv	s1,a1
  int r;

  if (fp == NULL)
   13616:	e099                	bnez	s1,1361c <_fclose_r+0x16>
    return (0);			/* on NULL */
   13618:	4781                	li	a5,0
   1361a:	a07d                	j	136c8 <_fclose_r+0xc2>

  CHECK_INIT (rptr, fp);
   1361c:	fc843783          	ld	a5,-56(s0)
   13620:	fcf43823          	sd	a5,-48(s0)
   13624:	fd043783          	ld	a5,-48(s0)
   13628:	cb89                	beqz	a5,1363a <_fclose_r+0x34>
   1362a:	fd043783          	ld	a5,-48(s0)
   1362e:	63bc                	ld	a5,64(a5)
   13630:	e789                	bnez	a5,1363a <_fclose_r+0x34>
   13632:	fd043503          	ld	a0,-48(s0)
   13636:	98cfd0ef          	jal	107c2 <__sinit>
  pthread_setcancelstate (PTHREAD_CANCEL_DISABLE, &__oldcancel);
#endif
  if (!(fp->_flags2 & __SNLK))
    _flockfile (fp);

  if (fp->_flags == 0)		/* not open! */
   1363a:	01049783          	lh	a5,16(s1)
   1363e:	e399                	bnez	a5,13644 <_fclose_r+0x3e>
      if (!(fp->_flags2 & __SNLK))
	_funlockfile (fp);
#ifdef _STDIO_WITH_THREAD_CANCELLATION_SUPPORT
      pthread_setcancelstate (__oldcancel, &__oldcancel);
#endif
      return (0);
   13640:	4781                	li	a5,0
   13642:	a059                	j	136c8 <_fclose_r+0xc2>
  r = (fp->_flags & __SWR) ? __sflush_r (rptr, fp) : 0;
#else
  /* Follow POSIX semantics exactly.  Unconditionally flush to allow
     special handling for seekable read files to reposition file to last
     byte processed as opposed to last byte read ahead into the buffer. */
  r = __sflush_r (rptr, fp);
   13644:	85a6                	mv	a1,s1
   13646:	fc843503          	ld	a0,-56(s0)
   1364a:	0b2000ef          	jal	136fc <__sflush_r>
   1364e:	87aa                	mv	a5,a0
   13650:	fcf42e23          	sw	a5,-36(s0)
#endif
  if (fp->_close != NULL && fp->_close (rptr, fp->_cookie) < 0)
   13654:	6cbc                	ld	a5,88(s1)
   13656:	cf89                	beqz	a5,13670 <_fclose_r+0x6a>
   13658:	6cbc                	ld	a5,88(s1)
   1365a:	7c98                	ld	a4,56(s1)
   1365c:	85ba                	mv	a1,a4
   1365e:	fc843503          	ld	a0,-56(s0)
   13662:	9782                	jalr	a5
   13664:	87aa                	mv	a5,a0
   13666:	0007d563          	bgez	a5,13670 <_fclose_r+0x6a>
    r = EOF;
   1366a:	57fd                	li	a5,-1
   1366c:	fcf42e23          	sw	a5,-36(s0)
  if (fp->_flags & __SMBF)
   13670:	01049783          	lh	a5,16(s1)
   13674:	17c2                	slli	a5,a5,0x30
   13676:	93c1                	srli	a5,a5,0x30
   13678:	2781                	sext.w	a5,a5
   1367a:	0807f793          	andi	a5,a5,128
   1367e:	2781                	sext.w	a5,a5
   13680:	c799                	beqz	a5,1368e <_fclose_r+0x88>
    _free_r (rptr, (char *) fp->_bf._base);
   13682:	6c9c                	ld	a5,24(s1)
   13684:	85be                	mv	a1,a5
   13686:	fc843503          	ld	a0,-56(s0)
   1368a:	87cfe0ef          	jal	11706 <_free_r>
  if (HASUB (fp))
   1368e:	70bc                	ld	a5,96(s1)
   13690:	cf91                	beqz	a5,136ac <_fclose_r+0xa6>
    FREEUB (rptr, fp);
   13692:	70b8                	ld	a4,96(s1)
   13694:	07c48793          	addi	a5,s1,124
   13698:	00f70863          	beq	a4,a5,136a8 <_fclose_r+0xa2>
   1369c:	70bc                	ld	a5,96(s1)
   1369e:	85be                	mv	a1,a5
   136a0:	fc843503          	ld	a0,-56(s0)
   136a4:	862fe0ef          	jal	11706 <_free_r>
   136a8:	0604b023          	sd	zero,96(s1)
  if (HASLB (fp))
   136ac:	60dc                	ld	a5,128(s1)
   136ae:	cb89                	beqz	a5,136c0 <_fclose_r+0xba>
    FREELB (rptr, fp);
   136b0:	60dc                	ld	a5,128(s1)
   136b2:	85be                	mv	a1,a5
   136b4:	fc843503          	ld	a0,-56(s0)
   136b8:	84efe0ef          	jal	11706 <_free_r>
   136bc:	0804b023          	sd	zero,128(s1)
  __sfp_lock_acquire ();
  fp->_flags = 0;		/* release this FILE for reuse */
   136c0:	00049823          	sh	zero,16(s1)
  __sfp_lock_release ();
#ifdef _STDIO_WITH_THREAD_CANCELLATION_SUPPORT
  pthread_setcancelstate (__oldcancel, &__oldcancel);
#endif

  return (r);
   136c4:	fdc42783          	lw	a5,-36(s0)
}
   136c8:	853e                	mv	a0,a5
   136ca:	70e2                	ld	ra,56(sp)
   136cc:	7442                	ld	s0,48(sp)
   136ce:	74a2                	ld	s1,40(sp)
   136d0:	6121                	addi	sp,sp,64
   136d2:	8082                	ret

00000000000136d4 <fclose>:

#ifndef _REENT_ONLY

int
fclose (register FILE * fp)
{
   136d4:	1141                	addi	sp,sp,-16
   136d6:	e406                	sd	ra,8(sp)
   136d8:	e022                	sd	s0,0(sp)
   136da:	0800                	addi	s0,sp,16
   136dc:	872a                	mv	a4,a0
  return _fclose_r(_REENT, fp);
   136de:	00003797          	auipc	a5,0x3
   136e2:	5ea78793          	addi	a5,a5,1514 # 16cc8 <_impure_ptr>
   136e6:	639c                	ld	a5,0(a5)
   136e8:	85ba                	mv	a1,a4
   136ea:	853e                	mv	a0,a5
   136ec:	f1bff0ef          	jal	13606 <_fclose_r>
   136f0:	87aa                	mv	a5,a0
}
   136f2:	853e                	mv	a0,a5
   136f4:	60a2                	ld	ra,8(sp)
   136f6:	6402                	ld	s0,0(sp)
   136f8:	0141                	addi	sp,sp,16
   136fa:	8082                	ret

00000000000136fc <__sflush_r>:
/* Core function which does not lock file pointer.  This gets called
   directly from __srefill. */
int
__sflush_r (struct _reent *ptr,
       register FILE * fp)
{
   136fc:	711d                	addi	sp,sp,-96
   136fe:	ec86                	sd	ra,88(sp)
   13700:	e8a2                	sd	s0,80(sp)
   13702:	e4a6                	sd	s1,72(sp)
   13704:	e0ca                	sd	s2,64(sp)
   13706:	fc4e                	sd	s3,56(sp)
   13708:	f852                	sd	s4,48(sp)
   1370a:	1080                	addi	s0,sp,96
   1370c:	faa43423          	sd	a0,-88(s0)
   13710:	84ae                	mv	s1,a1
  register unsigned char *p;
  register _READ_WRITE_BUFSIZE_TYPE n;
  register _READ_WRITE_RETURN_TYPE t;
  short flags;

  flags = fp->_flags;
   13712:	0104d783          	lhu	a5,16(s1)
   13716:	fcf41123          	sh	a5,-62(s0)
  if ((flags & __SWR) == 0)
   1371a:	fc245783          	lhu	a5,-62(s0)
   1371e:	2781                	sext.w	a5,a5
   13720:	8ba1                	andi	a5,a5,8
   13722:	2781                	sext.w	a5,a5
   13724:	1c079a63          	bnez	a5,138f8 <__sflush_r+0x1fc>
    {
#ifdef _FSEEK_OPTIMIZATION
      /* For a read stream, an fflush causes the next seek to be
         unoptimized (i.e. forces a system-level seek).  This conforms
         to the POSIX and SUSv3 standards.  */
      fp->_flags |= __SNPT;
   13728:	01049703          	lh	a4,16(s1)
   1372c:	6785                	lui	a5,0x1
   1372e:	80078793          	addi	a5,a5,-2048 # 800 <__stack_size+0x400>
   13732:	8fd9                	or	a5,a5,a4
   13734:	0107979b          	slliw	a5,a5,0x10
   13738:	4107d79b          	sraiw	a5,a5,0x10
   1373c:	00f49823          	sh	a5,16(s1)
         the next byte from the file rather than the buffer.  This conforms
         to the POSIX and SUSv3 standards.  Note that the standards allow
         this seek to be deferred until necessary, but we choose to do it here
         to make the change simpler, more contained, and less likely
         to miss a code scenario.  */
      if ((fp->_r > 0 || fp->_ur > 0) && fp->_seek != NULL)
   13740:	449c                	lw	a5,8(s1)
   13742:	00f04563          	bgtz	a5,1374c <__sflush_r+0x50>
   13746:	5cbc                	lw	a5,120(s1)
   13748:	1af05663          	blez	a5,138f4 <__sflush_r+0x1f8>
   1374c:	68bc                	ld	a5,80(s1)
   1374e:	1a078363          	beqz	a5,138f4 <__sflush_r+0x1f8>
#endif

	  /* Save last errno and set errno to 0, so we can check if a device
	     returns with a valid position -1.  We restore the last errno if
	     no other error condition has been encountered. */
	  tmp_errno = _REENT_ERRNO(ptr);
   13752:	fa843783          	ld	a5,-88(s0)
   13756:	439c                	lw	a5,0(a5)
   13758:	faf42e23          	sw	a5,-68(s0)
	  _REENT_ERRNO(ptr) = 0;
   1375c:	fa843783          	ld	a5,-88(s0)
   13760:	0007a023          	sw	zero,0(a5)
	  /* Get the physical position we are at in the file.  */
	  if (fp->_flags & __SOFF)
   13764:	01049783          	lh	a5,16(s1)
   13768:	17c2                	slli	a5,a5,0x30
   1376a:	93c1                	srli	a5,a5,0x30
   1376c:	0007871b          	sext.w	a4,a5
   13770:	6785                	lui	a5,0x1
   13772:	8ff9                	and	a5,a5,a4
   13774:	2781                	sext.w	a5,a5
   13776:	c789                	beqz	a5,13780 <__sflush_r+0x84>
	    curoff = fp->_offset;
   13778:	6cdc                	ld	a5,152(s1)
   1377a:	fcf43423          	sd	a5,-56(s0)
   1377e:	a895                	j	137f2 <__sflush_r+0xf6>
#ifdef __LARGE64_FILES
	      if (fp->_flags & __SL64)
		curoff = fp->_seek64 (ptr, fp->_cookie, 0, SEEK_CUR);
	      else
#endif
		curoff = fp->_seek (ptr, fp->_cookie, 0, SEEK_CUR);
   13780:	68bc                	ld	a5,80(s1)
   13782:	7c98                	ld	a4,56(s1)
   13784:	4685                	li	a3,1
   13786:	4601                	li	a2,0
   13788:	85ba                	mv	a1,a4
   1378a:	fa843503          	ld	a0,-88(s0)
   1378e:	9782                	jalr	a5
   13790:	fca43423          	sd	a0,-56(s0)
	      if (curoff == -1L && _REENT_ERRNO(ptr) != 0)
   13794:	fc843703          	ld	a4,-56(s0)
   13798:	57fd                	li	a5,-1
   1379a:	04f71c63          	bne	a4,a5,137f2 <__sflush_r+0xf6>
   1379e:	fa843783          	ld	a5,-88(s0)
   137a2:	439c                	lw	a5,0(a5)
   137a4:	c7b9                	beqz	a5,137f2 <__sflush_r+0xf6>
		{
		  int result = EOF;
   137a6:	57fd                	li	a5,-1
   137a8:	fcf42223          	sw	a5,-60(s0)
		  if (_REENT_ERRNO(ptr) == ESPIPE || _REENT_ERRNO(ptr) == EINVAL)
   137ac:	fa843783          	ld	a5,-88(s0)
   137b0:	439c                	lw	a5,0(a5)
   137b2:	873e                	mv	a4,a5
   137b4:	47f5                	li	a5,29
   137b6:	00f70963          	beq	a4,a5,137c8 <__sflush_r+0xcc>
   137ba:	fa843783          	ld	a5,-88(s0)
   137be:	439c                	lw	a5,0(a5)
   137c0:	873e                	mv	a4,a5
   137c2:	47d9                	li	a5,22
   137c4:	00f71a63          	bne	a4,a5,137d8 <__sflush_r+0xdc>
		    {
		      result = 0;
   137c8:	fc042223          	sw	zero,-60(s0)
		      _REENT_ERRNO(ptr) = tmp_errno;
   137cc:	fa843783          	ld	a5,-88(s0)
   137d0:	fbc42703          	lw	a4,-68(s0)
   137d4:	c398                	sw	a4,0(a5)
   137d6:	a819                	j	137ec <__sflush_r+0xf0>
		    }
		  else
		    fp->_flags |= __SERR;
   137d8:	01049783          	lh	a5,16(s1)
   137dc:	0407e793          	ori	a5,a5,64
   137e0:	0107979b          	slliw	a5,a5,0x10
   137e4:	4107d79b          	sraiw	a5,a5,0x10
   137e8:	00f49823          	sh	a5,16(s1)
		  return result;
   137ec:	fc442783          	lw	a5,-60(s0)
   137f0:	a251                	j	13974 <__sflush_r+0x278>
		}
            }
          if (fp->_flags & __SRD)
   137f2:	01049783          	lh	a5,16(s1)
   137f6:	17c2                	slli	a5,a5,0x30
   137f8:	93c1                	srli	a5,a5,0x30
   137fa:	2781                	sext.w	a5,a5
   137fc:	8b91                	andi	a5,a5,4
   137fe:	2781                	sext.w	a5,a5
   13800:	c38d                	beqz	a5,13822 <__sflush_r+0x126>
            {
              /* Current offset is at end of buffer.  Compensate for
                 characters not yet read.  */
              curoff -= fp->_r;
   13802:	449c                	lw	a5,8(s1)
   13804:	873e                	mv	a4,a5
   13806:	fc843783          	ld	a5,-56(s0)
   1380a:	8f99                	sub	a5,a5,a4
   1380c:	fcf43423          	sd	a5,-56(s0)
              if (HASUB (fp))
   13810:	70bc                	ld	a5,96(s1)
   13812:	cb81                	beqz	a5,13822 <__sflush_r+0x126>
                curoff -= fp->_ur;
   13814:	5cbc                	lw	a5,120(s1)
   13816:	873e                	mv	a4,a5
   13818:	fc843783          	ld	a5,-56(s0)
   1381c:	8f99                	sub	a5,a5,a4
   1381e:	fcf43423          	sd	a5,-56(s0)
#ifdef __LARGE64_FILES
	  if (fp->_flags & __SL64)
	    curoff = fp->_seek64 (ptr, fp->_cookie, curoff, SEEK_SET);
	  else
#endif
	    curoff = fp->_seek (ptr, fp->_cookie, curoff, SEEK_SET);
   13822:	68bc                	ld	a5,80(s1)
   13824:	7c98                	ld	a4,56(s1)
   13826:	4681                	li	a3,0
   13828:	fc843603          	ld	a2,-56(s0)
   1382c:	85ba                	mv	a1,a4
   1382e:	fa843503          	ld	a0,-88(s0)
   13832:	9782                	jalr	a5
   13834:	fca43423          	sd	a0,-56(s0)
	  if (curoff != -1 || _REENT_ERRNO(ptr) == 0
   13838:	fc843703          	ld	a4,-56(s0)
   1383c:	57fd                	li	a5,-1
   1383e:	02f71463          	bne	a4,a5,13866 <__sflush_r+0x16a>
   13842:	fa843783          	ld	a5,-88(s0)
   13846:	439c                	lw	a5,0(a5)
   13848:	cf99                	beqz	a5,13866 <__sflush_r+0x16a>
	      || _REENT_ERRNO(ptr) == ESPIPE || _REENT_ERRNO(ptr) == EINVAL)
   1384a:	fa843783          	ld	a5,-88(s0)
   1384e:	439c                	lw	a5,0(a5)
   13850:	873e                	mv	a4,a5
   13852:	47f5                	li	a5,29
   13854:	00f70963          	beq	a4,a5,13866 <__sflush_r+0x16a>
   13858:	fa843783          	ld	a5,-88(s0)
   1385c:	439c                	lw	a5,0(a5)
   1385e:	873e                	mv	a4,a5
   13860:	47d9                	li	a5,22
   13862:	06f71d63          	bne	a4,a5,138dc <__sflush_r+0x1e0>
	    {
	      /* Seek successful or ignorable error condition.
		 We can clear read buffer now.  */
#ifdef _FSEEK_OPTIMIZATION
	      fp->_flags &= ~__SNPT;
   13866:	01049703          	lh	a4,16(s1)
   1386a:	77fd                	lui	a5,0xfffff
   1386c:	7ff78793          	addi	a5,a5,2047 # fffffffffffff7ff <_eheap+0xfffffffffffe636f>
   13870:	8ff9                	and	a5,a5,a4
   13872:	0107979b          	slliw	a5,a5,0x10
   13876:	4107d79b          	sraiw	a5,a5,0x10
   1387a:	00f49823          	sh	a5,16(s1)
#endif
	      fp->_r = 0;
   1387e:	0004a423          	sw	zero,8(s1)
	      fp->_p = fp->_bf._base;
   13882:	6c9c                	ld	a5,24(s1)
   13884:	e09c                	sd	a5,0(s1)
	      if ((fp->_flags & __SOFF) && (curoff != -1 || _REENT_ERRNO(ptr) == 0))
   13886:	01049783          	lh	a5,16(s1)
   1388a:	17c2                	slli	a5,a5,0x30
   1388c:	93c1                	srli	a5,a5,0x30
   1388e:	0007871b          	sext.w	a4,a5
   13892:	6785                	lui	a5,0x1
   13894:	8ff9                	and	a5,a5,a4
   13896:	2781                	sext.w	a5,a5
   13898:	cf89                	beqz	a5,138b2 <__sflush_r+0x1b6>
   1389a:	fc843703          	ld	a4,-56(s0)
   1389e:	57fd                	li	a5,-1
   138a0:	00f71663          	bne	a4,a5,138ac <__sflush_r+0x1b0>
   138a4:	fa843783          	ld	a5,-88(s0)
   138a8:	439c                	lw	a5,0(a5)
   138aa:	e781                	bnez	a5,138b2 <__sflush_r+0x1b6>
		fp->_offset = curoff;
   138ac:	fc843783          	ld	a5,-56(s0)
   138b0:	ecdc                	sd	a5,152(s1)
	      _REENT_ERRNO(ptr) = tmp_errno;
   138b2:	fa843783          	ld	a5,-88(s0)
   138b6:	fbc42703          	lw	a4,-68(s0)
   138ba:	c398                	sw	a4,0(a5)
	      if (HASUB (fp))
   138bc:	70bc                	ld	a5,96(s1)
   138be:	cb9d                	beqz	a5,138f4 <__sflush_r+0x1f8>
		FREEUB (ptr, fp);
   138c0:	70b8                	ld	a4,96(s1)
   138c2:	07c48793          	addi	a5,s1,124
   138c6:	00f70863          	beq	a4,a5,138d6 <__sflush_r+0x1da>
   138ca:	70bc                	ld	a5,96(s1)
   138cc:	85be                	mv	a1,a5
   138ce:	fa843503          	ld	a0,-88(s0)
   138d2:	e35fd0ef          	jal	11706 <_free_r>
   138d6:	0604b023          	sd	zero,96(s1)
	      if (HASUB (fp))
   138da:	a829                	j	138f4 <__sflush_r+0x1f8>
	    }
	  else
	    {
	      fp->_flags |= __SERR;
   138dc:	01049783          	lh	a5,16(s1)
   138e0:	0407e793          	ori	a5,a5,64
   138e4:	0107979b          	slliw	a5,a5,0x10
   138e8:	4107d79b          	sraiw	a5,a5,0x10
   138ec:	00f49823          	sh	a5,16(s1)
	      return EOF;
   138f0:	57fd                	li	a5,-1
   138f2:	a049                	j	13974 <__sflush_r+0x278>
	    }
	}
      return 0;
   138f4:	4781                	li	a5,0
   138f6:	a8bd                	j	13974 <__sflush_r+0x278>
    }
  if ((p = fp->_bf._base) == NULL)
   138f8:	0184b903          	ld	s2,24(s1)
   138fc:	00091463          	bnez	s2,13904 <__sflush_r+0x208>
    {
      /* Nothing to flush.  */
      return 0;
   13900:	4781                	li	a5,0
   13902:	a88d                	j	13974 <__sflush_r+0x278>
    }
  n = fp->_p - p;		/* write this much */
   13904:	609c                	ld	a5,0(s1)
   13906:	412787b3          	sub	a5,a5,s2
   1390a:	0007899b          	sext.w	s3,a5
  /*
   * Set these immediately to avoid problems with longjmp
   * and to allow exchange buffering (via setvbuf) in user
   * write function.
   */
  fp->_p = p;
   1390e:	0124b023          	sd	s2,0(s1)
  fp->_w = flags & (__SLBF | __SNBF) ? 0 : fp->_bf._size;
   13912:	fc245783          	lhu	a5,-62(s0)
   13916:	2781                	sext.w	a5,a5
   13918:	8b8d                	andi	a5,a5,3
   1391a:	2781                	sext.w	a5,a5
   1391c:	e399                	bnez	a5,13922 <__sflush_r+0x226>
   1391e:	509c                	lw	a5,32(s1)
   13920:	a011                	j	13924 <__sflush_r+0x228>
   13922:	4781                	li	a5,0
   13924:	c4dc                	sw	a5,12(s1)

  while (n > 0)
   13926:	a099                	j	1396c <__sflush_r+0x270>
    {
      t = fp->_write (ptr, fp->_cookie, (char *) p, n);
   13928:	64bc                	ld	a5,72(s1)
   1392a:	7c98                	ld	a4,56(s1)
   1392c:	86ce                	mv	a3,s3
   1392e:	864a                	mv	a2,s2
   13930:	85ba                	mv	a1,a4
   13932:	fa843503          	ld	a0,-88(s0)
   13936:	9782                	jalr	a5
   13938:	8a2a                	mv	s4,a0
      if (t <= 0)
   1393a:	01404e63          	bgtz	s4,13956 <__sflush_r+0x25a>
	{
          fp->_flags |= __SERR;
   1393e:	01049783          	lh	a5,16(s1)
